ccopy_reg
_reconstructor
p1
(cpsychopy.data
ExperimentHandler
p2
c__builtin__
object
p3
NtRp4
(dp5
S'originPath'
p6
S'C:\\Users\\user1\\Desktop\\psychopy_neuro-master\\Lesson_plan_Psychopy\\visneuro_demo\\PsychoPy2 Demos\\practical IAT\\IAT.psyexp'
p7
sS'dataFileName'
p8
VC:\u005cUsers\u005cuser1\u005cDesktop\u005cpsychopy_neuro-master\u005cLesson_plan_Psychopy\u005cvisneuro_demo\u005cPsychoPy2 Demos\u005cpractical IAT\u005cdata\u005cRajat_2015_Sep_08_1635
p9
sS'runtimeInfo'
p10
NsS'name'
p11
S'IAT'
p12
sS'dataNames'
p13
(lp14
S'key_resp_2.keys'
p15
aS'key_resp_2.rt'
p16
aS'Instr_key_resp_1x.keys'
p17
aS'Instr_key_resp_1x.rt'
p18
aS'Response_1.keys'
p19
aS'Response_1.corr'
p20
aS'Response_1.rt'
p21
aS'Keys_1.keys'
p22
aS'Keys_1.corr'
p23
aS'Keys_1.rt'
p24
asS'autoLog'
p25
I01
sS'extraInfo'
p26
(dp27
Vsession
p28
V001
p29
sVparticipant
p30
VRajat
p31
sS'frameRate'
p32
cnumpy.core.multiarray
scalar
p33
(cnumpy
dtype
p34
(S'f8'
I0
I1
tRp35
(I3
S'<'
NNNI-1
I-1
I0
tbS'\xd3z\xa4i\t\xf8M@'
tRp36
sS'expName'
p37
g12
sS'date'
p38
V2015_Sep_08_1635
p39
sVside
p40
I1
ssS'loopsUnfinished'
p41
(lp42
sS'saveWideText'
p43
I01
sS'thisEntry'
p44
(dp45
sS'version'
p46
S''
sS'_paramNamesSoFar'
p47
(lp48
S'color'
p49
aS'word'
p50
aS'condition'
p51
aS'key'
p52
asS'entries'
p53
(lp54
(dp55
g16
F17.42659006654867
sg37
g12
sg30
g31
sg32
g36
sg15
S'space'
p56
sg28
g29
sg38
g39
sg40
I1
sa(dp57
g28
g29
sg37
g12
sg30
g31
sg32
g36
sg17
S'space'
p58
sg18
F13.878321498661535
sg38
g39
sg40
I1
sa(dp59
g28
g29
sS'trials.thisIndex'
p60
g33
(g34
(S'i4'
I0
I1
tRp61
(I3
S'<'
NNNI-1
I-1
I0
tbS'\n\x00\x00\x00'
tRp62
sg19
S'i'
sg37
g12
sg50
S'Efficient'
p63
sg52
S'i'
sg49
S'skyblue'
p64
sS'trials.thisRepN'
p65
I0
sg30
g31
sg32
g36
sS'trials.thisN'
p66
I0
sg23
I0
sS'trials.thisTrialN'
p67
I0
sg21
F2.7698351289873244
sg38
g39
sg22
Nsg20
I1
sg40
I1
sg51
S'practical'
p68
sa(dp69
g28
g29
sS'trials.thisIndex'
p70
g33
(g61
S'\t\x00\x00\x00'
tRp71
sg19
S'i'
sg37
g12
sg50
S'Functional'
p72
sg52
S'i'
sg49
g64
sS'trials.thisRepN'
p73
I0
sg30
g31
sg32
g36
sS'trials.thisN'
p74
I1
sg23
I0
sS'trials.thisTrialN'
p75
I1
sg21
F1.6186197610222735
sg38
g39
sg22
Nsg20
I1
sg40
I1
sg51
g68
sa(dp76
g28
g29
sS'trials.thisIndex'
p77
g33
(g61
S'\x0b\x00\x00\x00'
tRp78
sg19
S'e'
sg37
g12
sg50
S'Constructive'
p79
sg52
S'i'
sg49
g64
sS'trials.thisRepN'
p80
I0
sg30
g31
sg32
g36
sS'trials.thisN'
p81
I2
sg23
I1
sS'trials.thisTrialN'
p82
I2
sg24
F3.0027533132670214
sg21
F1.3513960748387035
sg38
g39
sg22
S'i'
sg20
I0
sg40
I1
sg51
g68
sa(dp83
g28
g29
sS'trials.thisIndex'
p84
g33
(g61
S'\x05\x00\x00\x00'
tRp85
sg19
S'e'
sg37
g12
sg50
S'Different'
p86
sg52
S'e'
sg49
g64
sS'trials.thisRepN'
p87
I0
sg30
g31
sg32
g36
sS'trials.thisN'
p88
I3
sg23
I0
sS'trials.thisTrialN'
p89
I3
sg21
F1.5515377135307062
sg38
g39
sg22
Nsg20
I1
sg40
I1
sg51
S'creative'
p90
sa(dp91
g28
g29
sS'trials.thisIndex'
p92
g33
(g61
S'\x06\x00\x00\x00'
tRp93
sg19
S'i'
sg37
g12
sg50
S'Practical'
p94
sg52
S'i'
sg49
g64
sS'trials.thisRepN'
p95
I0
sg30
g31
sg32
g36
sS'trials.thisN'
p96
I4
sg23
I0
sS'trials.thisTrialN'
p97
I4
sg21
F1.0014975031081121
sg38
g39
sg22
Nsg20
I1
sg40
I1
sg51
g68
sa(dp98
g28
g29
sS'trials.thisIndex'
p99
g33
(g61
S'\x07\x00\x00\x00'
tRp100
sg19
S'e'
sg37
g12
sg50
S'Applied'
p101
sg52
S'i'
sg49
g64
sS'trials.thisRepN'
p102
I0
sg30
g31
sg32
g36
sS'trials.thisN'
p103
I5
sg23
I1
sS'trials.thisTrialN'
p104
I5
sg24
F0.69968987151514739
sg21
F0.96815910415898543
sg38
g39
sg22
S'i'
sg20
I0
sg40
I1
sg51
g68
sa(dp105
g28
g29
sS'trials.thisIndex'
p106
g33
(g61
S'\x01\x00\x00\x00'
tRp107
sg19
S'e'
sg37
g12
sg50
S'Novel'
p108
sg52
S'e'
sg49
g64
sS'trials.thisRepN'
p109
I0
sg30
g31
sg32
g36
sS'trials.thisN'
p110
I6
sg23
I0
sS'trials.thisTrialN'
p111
I6
sg21
F2.5864010957739083
sg38
g39
sg22
Nsg20
I1
sg40
I1
sg51
g90
sa(dp112
g28
g29
sS'trials.thisIndex'
p113
g33
(g61
S'\x00\x00\x00\x00'
tRp114
sg19
S'e'
sg37
g12
sg50
S'Creative'
p115
sg52
S'e'
sg49
g64
sS'trials.thisRepN'
p116
I0
sg30
g31
sg32
g36
sS'trials.thisN'
p117
I7
sg23
I0
sS'trials.thisTrialN'
p118
I7
sg21
F0.61816882154380437
sg38
g39
sg22
Nsg20
I1
sg40
I1
sg51
g90
sa(dp119
g28
g29
sS'trials.thisIndex'
p120
g33
(g61
S'\x04\x00\x00\x00'
tRp121
sg19
S'e'
sg37
g12
sg50
S'Original'
p122
sg52
S'e'
sg49
g64
sS'trials.thisRepN'
p123
I0
sg30
g31
sg32
g36
sS'trials.thisN'
p124
I8
sg23
I0
sS'trials.thisTrialN'
p125
I8
sg21
F1.2850242073764093
sg38
g39
sg22
Nsg20
I1
sg40
I1
sg51
g90
sa(dp126
g28
g29
sS'trials.thisIndex'
p127
g33
(g61
S'\x03\x00\x00\x00'
tRp128
sg19
S'e'
sg37
g12
sg50
S'Newfangled'
p129
sg52
S'e'
sg49
g64
sS'trials.thisRepN'
p130
I0
sg30
g31
sg32
g36
sS'trials.thisN'
p131
I9
sg23
I0
sS'trials.thisTrialN'
p132
I9
sg21
F0.83464327608817257
sg38
g39
sg22
Nsg20
I1
sg40
I1
sg51
g90
sa(dp133
g28
g29
sS'trials.thisIndex'
p134
g33
(g61
S'\x02\x00\x00\x00'
tRp135
sg19
S'e'
sg37
g12
sg50
S'Inventive'
p136
sg52
S'e'
sg49
g64
sS'trials.thisRepN'
p137
I0
sg30
g31
sg32
g36
sS'trials.thisN'
p138
I10
sg23
I0
sS'trials.thisTrialN'
p139
I10
sg21
F0.88461246850783937
sg38
g39
sg22
Nsg20
I1
sg40
I1
sg51
g90
sa(dp140
g28
g29
sS'trials.thisIndex'
p141
g33
(g61
S'\x08\x00\x00\x00'
tRp142
sg19
S'e'
sg37
g12
sg50
S'Useful'
p143
sg52
S'i'
sg49
g64
sS'trials.thisRepN'
p144
I0
sg30
g31
sg32
g36
sS'trials.thisN'
p145
I11
sg23
I1
sS'trials.thisTrialN'
p146
I11
sg24
F0.48302934649109375
sg21
F1.518686342460569
sg38
g39
sg22
S'i'
sg20
I0
sg40
I1
sg51
g68
sa(dp147
g28
g29
sS'trials.thisIndex'
p148
g33
(g61
S'\x07\x00\x00\x00'
tRp149
sg19
S'e'
sg37
g12
sg50
g101
sg52
S'i'
sg49
g64
sS'trials.thisRepN'
p150
I1
sg30
g31
sg32
g36
sS'trials.thisN'
p151
I12
sg23
I1
sS'trials.thisTrialN'
p152
I0
sg24
F0.48351306350377854
sg21
F0.93476938683306798
sg38
g39
sg22
S'i'
sg20
I0
sg40
I1
sg51
g68
sa(dp153
g28
g29
sS'trials.thisIndex'
p154
g33
(g61
S'\x08\x00\x00\x00'
tRp155
sg19
S'e'
sg37
g12
sg50
g143
sg52
S'i'
sg49
g64
sS'trials.thisRepN'
p156
I1
sg30
g31
sg32
g36
sS'trials.thisN'
p157
I13
sg23
I1
sS'trials.thisTrialN'
p158
I1
sg24
F0.416859441640554
sg21
F0.91786478503490798
sg38
g39
sg22
S'i'
sg20
I0
sg40
I1
sg51
g68
sa(dp159
g28
g29
sS'trials.thisIndex'
p160
g33
(g61
S'\x0b\x00\x00\x00'
tRp161
sg19
S'e'
sg37
g12
sg50
g79
sg52
S'i'
sg49
g64
sS'trials.thisRepN'
p162
I1
sg30
g31
sg32
g36
sS'trials.thisN'
p163
I14
sg23
I1
sS'trials.thisTrialN'
p164
I2
sg24
F0.49980052054161206
sg21
F1.3185145749012008
sg38
g39
sg22
S'i'
sg20
I0
sg40
I1
sg51
g68
sa(dp165
g28
g29
sS'trials.thisIndex'
p166
g33
(g61
S'\x03\x00\x00\x00'
tRp167
sg19
S'e'
sg37
g12
sg50
g129
sg52
S'e'
sg49
g64
sS'trials.thisRepN'
p168
I1
sg30
g31
sg32
g36
sS'trials.thisN'
p169
I15
sg23
I0
sS'trials.thisTrialN'
p170
I3
sg21
F0.86813463688304182
sg38
g39
sg22
Nsg20
I1
sg40
I1
sg51
g90
sa(dp171
g28
g29
sS'trials.thisIndex'
p172
g33
(g61
S'\x00\x00\x00\x00'
tRp173
sg19
S'e'
sg37
g12
sg50
g115
sg52
S'e'
sg49
g64
sS'trials.thisRepN'
p174
I1
sg30
g31
sg32
g36
sS'trials.thisN'
p175
I16
sg23
I0
sS'trials.thisTrialN'
p176
I4
sg21
F0.66783076591673307
sg38
g39
sg22
Nsg20
I1
sg40
I1
sg51
g90
sa(dp177
g28
g29
sS'trials.thisIndex'
p178
g33
(g61
S'\x02\x00\x00\x00'
tRp179
sg19
S'e'
sg37
g12
sg50
g136
sg52
S'e'
sg49
g64
sS'trials.thisRepN'
p180
I1
sg30
g31
sg32
g36
sS'trials.thisN'
p181
I17
sg23
I0
sS'trials.thisTrialN'
p182
I5
sg21
F0.68448274891125038
sg38
g39
sg22
Nsg20
I1
sg40
I1
sg51
g90
sa(dp183
g28
g29
sS'trials.thisIndex'
p184
g33
(g61
S'\x05\x00\x00\x00'
tRp185
sg19
S'e'
sg37
g12
sg50
g86
sg52
S'e'
sg49
g64
sS'trials.thisRepN'
p186
I1
sg30
g31
sg32
g36
sS'trials.thisN'
p187
I18
sg23
I0
sS'trials.thisTrialN'
p188
I6
sg21
F1.485105588377337
sg38
g39
sg22
Nsg20
I1
sg40
I1
sg51
g90
sa(dp189
g28
g29
sS'trials.thisIndex'
p190
g33
(g61
S'\x04\x00\x00\x00'
tRp191
sg19
S'e'
sg37
g12
sg50
g122
sg52
S'e'
sg49
g64
sS'trials.thisRepN'
p192
I1
sg30
g31
sg32
g36
sS'trials.thisN'
p193
I19
sg23
I0
sS'trials.thisTrialN'
p194
I7
sg21
F0.80123998422641307
sg38
g39
sg22
Nsg20
I1
sg40
I1
sg51
g90
sa(dp195
g28
g29
sS'trials.thisIndex'
p196
g33
(g61
S'\t\x00\x00\x00'
tRp197
sg19
S'i'
sg37
g12
sg50
g72
sg52
S'i'
sg49
g64
sS'trials.thisRepN'
p198
I1
sg30
g31
sg32
g36
sS'trials.thisN'
p199
I20
sg23
I0
sS'trials.thisTrialN'
p200
I8
sg21
F0.95188886362302583
sg38
g39
sg22
Nsg20
I1
sg40
I1
sg51
g68
sa(dp201
g28
g29
sS'trials.thisIndex'
p202
g33
(g61
S'\x01\x00\x00\x00'
tRp203
sg19
S'e'
sg37
g12
sg50
g108
sg52
S'e'
sg49
g64
sS'trials.thisRepN'
p204
I1
sg30
g31
sg32
g36
sS'trials.thisN'
p205
I21
sg23
I0
sS'trials.thisTrialN'
p206
I9
sg21
F1.1344779647188261
sg38
g39
sg22
Nsg20
I1
sg40
I1
sg51
g90
sa(dp207
g28
g29
sS'trials.thisIndex'
p208
g33
(g61
S'\x06\x00\x00\x00'
tRp209
sg19
S'i'
sg37
g12
sg50
g94
sg52
S'i'
sg49
g64
sS'trials.thisRepN'
p210
I1
sg30
g31
sg32
g36
sS'trials.thisN'
p211
I22
sg23
I0
sS'trials.thisTrialN'
p212
I10
sg21
F0.78466117130301427
sg38
g39
sg22
Nsg20
I1
sg40
I1
sg51
g68
sa(dp213
g28
g29
sS'trials.thisIndex'
p214
g33
(g61
S'\n\x00\x00\x00'
tRp215
sg19
S'i'
sg37
g12
sg50
g63
sg52
S'i'
sg49
g64
sS'trials.thisRepN'
p216
I1
sg30
g31
sg32
g36
sS'trials.thisN'
p217
I23
sg23
I0
sS'trials.thisTrialN'
p218
I11
sg21
F1.0845144007616909
sg38
g39
sg22
Nsg20
I1
sg40
I1
sg51
g68
sasS'loops'
p219
(lp220
g1
(cpsychopy.data
TrialHandler
p221
g3
NtRp222
(dp223
S'origin'
p224
V<PsychoPy2experiment version="1.78.01" encoding="utf-8">\u000a  <Settings>\u000a    <Param name="Show mouse" val="False" valType="bool" updates="None"/>\u000a    <Param name="Save csv file" val="False" valType="bool" updates="None"/>\u000a    <Param name="Monitor" val="testMonitor" valType="str" updates="None"/>\u000a    <Param name="Enable Escape" val="True" valType="bool" updates="None"/>\u000a    <Param name="color" val="$[-1.000,-1.000,-1.000]" valType="str" updates="None"/>\u000a    <Param name="Window size (pixels)" val="[1440, 900]" valType="code" updates="None"/>\u000a    <Param name="Full-screen window" val="True" valType="bool" updates="None"/>\u000a    <Param name="colorSpace" val="rgb" valType="str" updates="None"/>\u000a    <Param name="Save log file" val="True" valType="bool" updates="None"/>\u000a    <Param name="Experiment info" val="{u'session': u'001', u'participant': u'', u'side': u'1'}" valType="code" updates="None"/>\u000a    <Param name="Save excel file" val="False" valType="bool" updates="None"/>\u000a    <Param name="Save wide csv file" val="True" valType="bool" updates="None"/>\u000a    <Param name="Save psydat file" val="True" valType="bool" updates="None"/>\u000a    <Param name="expName" val="IAT" valType="str" updates="None"/>\u000a    <Param name="logging level" val="exp" valType="code" updates="None"/>\u000a    <Param name="Units" val="use prefs" valType="str" updates="None"/>\u000a    <Param name="Show info dlg" val="True" valType="bool" updates="None"/>\u000a    <Param name="Saved data folder" val="" valType="code" updates="None"/>\u000a    <Param name="Screen" val="1" valType="num" updates="None"/>\u000a  </Settings>\u000a  <Routines>\u000a    <Routine name="Block_6">\u000a      <TextComponent name="Practical_6">\u000a        <Param name="opacity" val="1" valType="code" updates="constant"/>\u000a        <Param name="colorSpace" val="rgb" valType="str" updates="constant"/>\u000a        <Param name="name" val="Practical_6" valType="code" updates="None"/>\u000a        <Param name="wrapWidth" val="" valType="code" updates="constant"/>\u000a        <Param name="color" val="skyblue" valType="str" updates="constant"/>\u000a        <Param name="text" val="Practical" valType="str" updates="constant"/>\u000a        <Param name="stopVal" val="" valType="code" updates="constant"/>\u000a        <Param name="durationEstim" val="" valType="code" updates="None"/>\u000a        <Param name="pos" val="[-0.8*side,0.8]" valType="code" updates="constant"/>\u000a        <Param name="flip" val="" valType="str" updates="constant"/>\u000a        <Param name="startEstim" val="" valType="code" updates="None"/>\u000a        <Param name="units" val="from exp settings" valType="str" updates="None"/>\u000a        <Param name="startType" val="time (s)" valType="str" updates="None"/>\u000a        <Param name="ori" val="0" valType="code" updates="constant"/>\u000a        <Param name="stopType" val="duration (s)" valType="str" updates="None"/>\u000a        <Param name="startVal" val="0.0" valType="code" updates="None"/>\u000a        <Param name="font" val="Arial" valType="str" updates="constant"/>\u000a        <Param name="letterHeight" val="0.15" valType="code" updates="constant"/>\u000a      </TextComponent>\u000a      <TextComponent name="or_6">\u000a        <Param name="opacity" val="1" valType="code" updates="constant"/>\u000a        <Param name="colorSpace" val="rgb" valType="str" updates="constant"/>\u000a        <Param name="name" val="or_6" valType="code" updates="None"/>\u000a        <Param name="wrapWidth" val="" valType="code" updates="constant"/>\u000a        <Param name="color" val="gray" valType="str" updates="constant"/>\u000a        <Param name="text" val="or" valType="str" updates="constant"/>\u000a        <Param name="stopVal" val="" valType="code" updates="constant"/>\u000a        <Param name="durationEstim" val="" valType="code" updates="None"/>\u000a        <Param name="pos" val="[-0.8,0.7]" valType="code" updates="constant"/>\u000a        <Param name="flip" val="" valType="str" updates="constant"/>\u000a        <Param name="startEstim" val="" valType="code" updates="None"/>\u000a        <Param name="units" val="from exp settings" valType="str" updates="None"/>\u000a        <Param name="startType" val="time (s)" valType="str" updates="None"/>\u000a        <Param name="ori" val="0" valType="code" updates="constant"/>\u000a        <Param name="stopType" val="duration (s)" valType="str" updates="None"/>\u000a        <Param name="startVal" val="0.0" valType="code" updates="None"/>\u000a        <Param name="font" val="Arial" valType="str" updates="constant"/>\u000a        <Param name="letterHeight" val="0.1" valType="code" updates="constant"/>\u000a      </TextComponent>\u000a      <TextComponent name="Bad_6">\u000a        <Param name="opacity" val="1" valType="code" updates="constant"/>\u000a        <Param name="colorSpace" val="rgb" valType="str" updates="constant"/>\u000a        <Param name="name" val="Bad_6" valType="code" updates="None"/>\u000a        <Param name="wrapWidth" val="" valType="code" updates="constant"/>\u000a        <Param name="color" val="limegreen" valType="str" updates="constant"/>\u000a        <Param name="text" val="Bad" valType="str" updates="constant"/>\u000a        <Param name="stopVal" val="" valType="code" updates="constant"/>\u000a        <Param name="durationEstim" val="" valType="code" updates="None"/>\u000a        <Param name="pos" val="[-0.8,0.6]" valType="code" updates="constant"/>\u000a        <Param name="flip" val="" valType="str" updates="constant"/>\u000a        <Param name="startEstim" val="" valType="code" updates="None"/>\u000a        <Param name="units" val="from exp settings" valType="str" updates="None"/>\u000a        <Param name="startType" val="time (s)" valType="str" updates="None"/>\u000a        <Param name="ori" val="0" valType="code" updates="constant"/>\u000a        <Param name="stopType" val="duration (s)" valType="str" updates="None"/>\u000a        <Param name="startVal" val="0.0" valType="code" updates="None"/>\u000a        <Param name="font" val="Arial" valType="str" updates="constant"/>\u000a        <Param name="letterHeight" val="0.15" valType="code" updates="constant"/>\u000a      </TextComponent>\u000a      <TextComponent name="Creative_6">\u000a        <Param name="opacity" val="1" valType="code" updates="constant"/>\u000a        <Param name="colorSpace" val="rgb" valType="str" updates="constant"/>\u000a        <Param name="name" val="Creative_6" valType="code" updates="None"/>\u000a        <Param name="wrapWidth" val="" valType="code" updates="constant"/>\u000a        <Param name="color" val="skyblue" valType="str" updates="constant"/>\u000a        <Param name="text" val="Creative" valType="str" updates="constant"/>\u000a        <Param name="stopVal" val="" valType="code" updates="constant"/>\u000a        <Param name="durationEstim" val="" valType="code" updates="None"/>\u000a        <Param name="pos" val="[0.8*side,0.8]" valType="code" updates="constant"/>\u000a        <Param name="flip" val="" valType="str" updates="constant"/>\u000a        <Param name="startEstim" val="" valType="code" updates="None"/>\u000a        <Param name="units" val="from exp settings" valType="str" updates="None"/>\u000a        <Param name="startType" val="time (s)" valType="str" updates="None"/>\u000a        <Param name="ori" val="0" valType="code" updates="constant"/>\u000a        <Param name="stopType" val="duration (s)" valType="str" updates="None"/>\u000a        <Param name="startVal" val="0.0" valType="code" updates="None"/>\u000a        <Param name="font" val="Arial" valType="str" updates="constant"/>\u000a        <Param name="letterHeight" val="0.15" valType="code" updates="constant"/>\u000a      </TextComponent>\u000a      <TextComponent name="or_2_6">\u000a        <Param name="opacity" val="1" valType="code" updates="constant"/>\u000a        <Param name="colorSpace" val="rgb" valType="str" updates="constant"/>\u000a        <Param name="name" val="or_2_6" valType="code" updates="None"/>\u000a        <Param name="wrapWidth" val="" valType="code" updates="constant"/>\u000a        <Param name="color" val="gray" valType="str" updates="constant"/>\u000a        <Param name="text" val="or" valType="str" updates="constant"/>\u000a        <Param name="stopVal" val="" valType="code" updates="constant"/>\u000a        <Param name="durationEstim" val="" valType="code" updates="None"/>\u000a        <Param name="pos" val="[0.8,0.7]" valType="code" updates="constant"/>\u000a        <Param name="flip" val="" valType="str" updates="constant"/>\u000a        <Param name="startEstim" val="" valType="code" updates="None"/>\u000a        <Param name="units" val="from exp settings" valType="str" updates="None"/>\u000a        <Param name="startType" val="time (s)" valType="str" updates="None"/>\u000a        <Param name="ori" val="0" valType="code" updates="constant"/>\u000a        <Param name="stopType" val="duration (s)" valType="str" updates="None"/>\u000a        <Param name="startVal" val="0.0" valType="code" updates="None"/>\u000a        <Param name="font" val="Arial" valType="str" updates="constant"/>\u000a        <Param name="letterHeight" val="0.1" valType="code" updates="constant"/>\u000a      </TextComponent>\u000a      <TextComponent name="Good_6">\u000a        <Param name="opacity" val="1" valType="code" updates="constant"/>\u000a        <Param name="colorSpace" val="rgb" valType="str" updates="constant"/>\u000a        <Param name="name" val="Good_6" valType="code" updates="None"/>\u000a        <Param name="wrapWidth" val="" valType="code" updates="constant"/>\u000a        <Param name="color" val="limegreen" valType="str" updates="constant"/>\u000a        <Param name="text" val="Good" valType="str" updates="constant"/>\u000a        <Param name="stopVal" val="" valType="code" updates="constant"/>\u000a        <Param name="durationEstim" val="" valType="code" updates="None"/>\u000a        <Param name="pos" val="[0.8,0.6]" valType="code" updates="constant"/>\u000a        <Param name="flip" val="" valType="str" updates="constant"/>\u000a        <Param name="startEstim" val="" valType="code" updates="None"/>\u000a        <Param name="units" val="from exp settings" valType="str" updates="None"/>\u000a        <Param name="startType" val="time (s)" valType="str" updates="None"/>\u000a        <Param name="ori" val="0" valType="code" updates="constant"/>\u000a        <Param name="stopType" val="duration (s)" valType="str" updates="None"/>\u000a        <Param name="startVal" val="0.0" valType="code" updates="None"/>\u000a        <Param name="font" val="Arial" valType="str" updates="constant"/>\u000a        <Param name="letterHeight" val="0.15" valType="code" updates="constant"/>\u000a      </TextComponent>\u000a      <TextComponent name="Word_6">\u000a        <Param name="opacity" val="1" valType="code" updates="constant"/>\u000a        <Param name="colorSpace" val="rgb" valType="str" updates="constant"/>\u000a        <Param name="name" val="Word_6" valType="code" updates="None"/>\u000a        <Param name="wrapWidth" val="" valType="code" updates="constant"/>\u000a        <Param name="color" val="$color" valType="str" updates="set every repeat"/>\u000a        <Param name="text" val="$word" valType="str" updates="set every repeat"/>\u000a        <Param name="stopVal" val="" valType="code" updates="constant"/>\u000a        <Param name="durationEstim" val="" valType="code" updates="None"/>\u000a        <Param name="pos" val="[0, 0]" valType="code" updates="constant"/>\u000a        <Param name="flip" val="" valType="str" updates="constant"/>\u000a        <Param name="startEstim" val="" valType="code" updates="None"/>\u000a        <Param name="units" val="from exp settings" valType="str" updates="None"/>\u000a        <Param name="startType" val="time (s)" valType="str" updates="None"/>\u000a        <Param name="ori" val="0" valType="code" updates="constant"/>\u000a        <Param name="stopType" val="duration (s)" valType="str" updates="None"/>\u000a        <Param name="startVal" val="0.3" valType="code" updates="None"/>\u000a        <Param name="font" val="Arial" valType="str" updates="constant"/>\u000a        <Param name="letterHeight" val="0.15" valType="code" updates="constant"/>\u000a      </TextComponent>\u000a      <KeyboardComponent name="Response_6">\u000a        <Param name="correctAns" val="$corr(key, side, condition)" valType="str" updates="constant"/>\u000a        <Param name="storeCorrect" val="True" valType="bool" updates="constant"/>\u000a        <Param name="name" val="Response_6" valType="code" updates="None"/>\u000a        <Param name="stopVal" val="Wrong_6.status==STARTED" valType="code" updates="constant"/>\u000a        <Param name="durationEstim" val="" valType="code" updates="None"/>\u000a        <Param name="forceEndRoutine" val="False" valType="bool" updates="constant"/>\u000a        <Param name="startEstim" val="" valType="code" updates="None"/>\u000a        <Param name="discard previous" val="False" valType="bool" updates="constant"/>\u000a        <Param name="startType" val="time (s)" valType="str" updates="None"/>\u000a        <Param name="allowedKeys" val="'e','i'" valType="code" updates="constant"/>\u000a        <Param name="stopType" val="condition" valType="str" updates="None"/>\u000a        <Param name="startVal" val="0.3" valType="code" updates="None"/>\u000a        <Param name="store" val="first key" valType="str" updates="constant"/>\u000a      </KeyboardComponent>\u000a      <CodeComponent name="code_6">\u000a        <Param name="Begin Experiment" val="" valType="extendedCode" updates="constant"/>\u000a        <Param name="name" val="code_6" valType="code" updates="None"/>\u000a        <Param name="Each Frame" val="if Response_6.status==STARTED:&#10;    if len(theseKeys)&gt;0:&#10;        if Response_6.corr ==1:&#10;            continueRoutine=False&#10;        else:&#10;            Wrong_6.setAutoDraw(True)&#10;            Wrong_6.status=STARTED" valType="extendedCode" updates="constant"/>\u000a        <Param name="Begin Routine" val="" valType="extendedCode" updates="constant"/>\u000a        <Param name="End Routine" val="" valType="extendedCode" updates="constant"/>\u000a        <Param name="End Experiment" val="" valType="extendedCode" updates="constant"/>\u000a      </CodeComponent>\u000a      <KeyboardComponent name="Keys_6">\u000a        <Param name="correctAns" val="$corr(key, side, condition)" valType="str" updates="constant"/>\u000a        <Param name="storeCorrect" val="True" valType="bool" updates="constant"/>\u000a        <Param name="name" val="Keys_6" valType="code" updates="None"/>\u000a        <Param name="stopVal" val="" valType="code" updates="constant"/>\u000a        <Param name="durationEstim" val="" valType="code" updates="None"/>\u000a        <Param name="forceEndRoutine" val="True" valType="bool" updates="constant"/>\u000a        <Param name="startEstim" val="" valType="code" updates="None"/>\u000a        <Param name="discard previous" val="True" valType="bool" updates="constant"/>\u000a        <Param name="startType" val="condition" valType="str" updates="None"/>\u000a        <Param name="allowedKeys" val="'e','i'" valType="code" updates="constant"/>\u000a        <Param name="stopType" val="duration (s)" valType="str" updates="None"/>\u000a        <Param name="startVal" val="Wrong_6.status==STARTED" valType="code" updates="None"/>\u000a        <Param name="store" val="first key" valType="str" updates="constant"/>\u000a      </KeyboardComponent>\u000a      <TextComponent name="Wrong_6">\u000a        <Param name="opacity" val="1" valType="code" updates="constant"/>\u000a        <Param name="colorSpace" val="rgb" valType="str" updates="constant"/>\u000a        <Param name="name" val="Wrong_6" valType="code" updates="None"/>\u000a        <Param name="wrapWidth" val="" valType="code" updates="constant"/>\u000a        <Param name="color" val="red" valType="str" updates="constant"/>\u000a        <Param name="text" val="X" valType="str" updates="constant"/>\u000a        <Param name="stopVal" val="" valType="code" updates="constant"/>\u000a        <Param name="durationEstim" val="" valType="code" updates="None"/>\u000a        <Param name="pos" val="[0, -.3]" valType="code" updates="constant"/>\u000a        <Param name="flip" val="" valType="str" updates="constant"/>\u000a        <Param name="startEstim" val="" valType="code" updates="None"/>\u000a        <Param name="units" val="from exp settings" valType="str" updates="None"/>\u000a        <Param name="startType" val="condition" valType="str" updates="None"/>\u000a        <Param name="ori" val="0" valType="code" updates="constant"/>\u000a        <Param name="stopType" val="duration (s)" valType="str" updates="None"/>\u000a        <Param name="startVal" val="len(theseKeys)&gt;5" valType="code" updates="None"/>\u000a        <Param name="font" val="Arial" valType="str" updates="constant"/>\u000a        <Param name="letterHeight" val="0.1" valType="code" updates="constant"/>\u000a      </TextComponent>\u000a    </Routine>\u000a    <Routine name="Instr_3">\u000a      <TextComponent name="Instr3">\u000a        <Param name="opacity" val="1" valType="code" updates="constant"/>\u000a        <Param name="colorSpace" val="rgb" valType="str" updates="constant"/>\u000a        <Param name="name" val="Instr3" valType="code" updates="None"/>\u000a        <Param name="wrapWidth" val="1.2" valType="code" updates="constant"/>\u000a        <Param name="color" val="white" valType="str" updates="constant"/>\u000a        <Param name="text" val="The four categories you saw separately now appear together. Remember that each item belongs to only one group. For example, if the categories 'creative' and 'good' appeared on separate sides above, picutres or words meaning 'creative' would go in the 'creative' category, not the 'good' category.&#13;&#10;&#13;&#10;Creative/Practical are labeled blue and Good/Bad are labeled green to help you identify the appropriate category.&#13;&#10;&#13;&#10;Press the spacebar to begin the next set of trials." valType="str" updates="constant"/>\u000a        <Param name="stopVal" val="" valType="code" updates="constant"/>\u000a        <Param name="durationEstim" val="" valType="code" updates="None"/>\u000a        <Param name="pos" val="[0, 0]" valType="code" updates="constant"/>\u000a        <Param name="flip" val="" valType="str" updates="constant"/>\u000a        <Param name="startEstim" val="" valType="code" updates="None"/>\u000a        <Param name="units" val="from exp settings" valType="str" updates="None"/>\u000a        <Param name="startType" val="time (s)" valType="str" updates="None"/>\u000a        <Param name="ori" val="0" valType="code" updates="constant"/>\u000a        <Param name="stopType" val="duration (s)" valType="str" updates="None"/>\u000a        <Param name="startVal" val="0.0" valType="code" updates="None"/>\u000a        <Param name="font" val="Arial" valType="str" updates="constant"/>\u000a        <Param name="letterHeight" val="0.08" valType="code" updates="constant"/>\u000a      </TextComponent>\u000a      <TextComponent name="Instr_Creat_3">\u000a        <Param name="opacity" val="1" valType="code" updates="constant"/>\u000a        <Param name="colorSpace" val="rgb" valType="str" updates="constant"/>\u000a        <Param name="name" val="Instr_Creat_3" valType="code" updates="None"/>\u000a        <Param name="wrapWidth" val="" valType="code" updates="constant"/>\u000a        <Param name="color" val="skyblue" valType="str" updates="constant"/>\u000a        <Param name="text" val="Creative" valType="str" updates="constant"/>\u000a        <Param name="stopVal" val="" valType="code" updates="constant"/>\u000a        <Param name="durationEstim" val="" valType="code" updates="None"/>\u000a        <Param name="pos" val="[-.8*side, 0.8]" valType="code" updates="constant"/>\u000a        <Param name="flip" val="" valType="str" updates="constant"/>\u000a        <Param name="startEstim" val="" valType="code" updates="None"/>\u000a        <Param name="units" val="from exp settings" valType="str" updates="None"/>\u000a        <Param name="startType" val="time (s)" valType="str" updates="None"/>\u000a        <Param name="ori" val="0" valType="code" updates="constant"/>\u000a        <Param name="stopType" val="duration (s)" valType="str" updates="None"/>\u000a        <Param name="startVal" val="0.0" valType="code" updates="None"/>\u000a        <Param name="font" val="Arial" valType="str" updates="constant"/>\u000a        <Param name="letterHeight" val="0.15" valType="code" updates="constant"/>\u000a      </TextComponent>\u000a      <TextComponent name="Instr_or_3">\u000a        <Param name="opacity" val="1" valType="code" updates="constant"/>\u000a        <Param name="colorSpace" val="rgb" valType="str" updates="constant"/>\u000a        <Param name="name" val="Instr_or_3" valType="code" updates="None"/>\u000a        <Param name="wrapWidth" val="" valType="code" updates="constant"/>\u000a        <Param name="color" val="gray" valType="str" updates="constant"/>\u000a        <Param name="text" val="or" valType="str" updates="constant"/>\u000a        <Param name="stopVal" val="" valType="code" updates="constant"/>\u000a        <Param name="durationEstim" val="" valType="code" updates="None"/>\u000a        <Param name="pos" val="[-.8, 0.7]" valType="code" updates="constant"/>\u000a        <Param name="flip" val="" valType="str" updates="constant"/>\u000a        <Param name="startEstim" val="" valType="code" updates="None"/>\u000a        <Param name="units" val="from exp settings" valType="str" updates="None"/>\u000a        <Param name="startType" val="time (s)" valType="str" updates="None"/>\u000a        <Param name="ori" val="0" valType="code" updates="constant"/>\u000a        <Param name="stopType" val="duration (s)" valType="str" updates="None"/>\u000a        <Param name="startVal" val="0.0" valType="code" updates="None"/>\u000a        <Param name="font" val="Arial" valType="str" updates="constant"/>\u000a        <Param name="letterHeight" val="0.1" valType="code" updates="constant"/>\u000a      </TextComponent>\u000a      <TextComponent name="Instr_Bad_3">\u000a        <Param name="opacity" val="1" valType="code" updates="constant"/>\u000a        <Param name="colorSpace" val="rgb" valType="str" updates="constant"/>\u000a        <Param name="name" val="Instr_Bad_3" valType="code" updates="None"/>\u000a        <Param name="wrapWidth" val="" valType="code" updates="constant"/>\u000a        <Param name="color" val="limegreen" valType="str" updates="constant"/>\u000a        <Param name="text" val="Bad" valType="str" updates="constant"/>\u000a        <Param name="stopVal" val="" valType="code" updates="constant"/>\u000a        <Param name="durationEstim" val="" valType="code" updates="None"/>\u000a        <Param name="pos" val="[-.8, 0.6]" valType="code" updates="constant"/>\u000a        <Param name="flip" val="" valType="str" updates="constant"/>\u000a        <Param name="startEstim" val="" valType="code" updates="None"/>\u000a        <Param name="units" val="from exp settings" valType="str" updates="None"/>\u000a        <Param name="startType" val="time (s)" valType="str" updates="None"/>\u000a        <Param name="ori" val="0" valType="code" updates="constant"/>\u000a        <Param name="stopType" val="duration (s)" valType="str" updates="None"/>\u000a        <Param name="startVal" val="0.0" valType="code" updates="None"/>\u000a        <Param name="font" val="Arial" valType="str" updates="constant"/>\u000a        <Param name="letterHeight" val="0.15" valType="code" updates="constant"/>\u000a      </TextComponent>\u000a      <TextComponent name="Instr_Prac_3">\u000a        <Param name="opacity" val="1" valType="code" updates="constant"/>\u000a        <Param name="colorSpace" val="rgb" valType="str" updates="constant"/>\u000a        <Param name="name" val="Instr_Prac_3" valType="code" updates="None"/>\u000a        <Param name="wrapWidth" val="" valType="code" updates="constant"/>\u000a        <Param name="color" val="skyblue" valType="str" updates="constant"/>\u000a        <Param name="text" val="Practical" valType="str" updates="constant"/>\u000a        <Param name="stopVal" val="" valType="code" updates="constant"/>\u000a        <Param name="durationEstim" val="" valType="code" updates="None"/>\u000a        <Param name="pos" val="[.8*side, 0.8]" valType="code" updates="constant"/>\u000a        <Param name="flip" val="" valType="str" updates="constant"/>\u000a        <Param name="startEstim" val="" valType="code" updates="None"/>\u000a        <Param name="units" val="from exp settings" valType="str" updates="None"/>\u000a        <Param name="startType" val="time (s)" valType="str" updates="None"/>\u000a        <Param name="ori" val="0" valType="code" updates="constant"/>\u000a        <Param name="stopType" val="duration (s)" valType="str" updates="None"/>\u000a        <Param name="startVal" val="0.0" valType="code" updates="None"/>\u000a        <Param name="font" val="Arial" valType="str" updates="constant"/>\u000a        <Param name="letterHeight" val="0.15" valType="code" updates="constant"/>\u000a      </TextComponent>\u000a      <TextComponent name="Instr_or_3_2">\u000a        <Param name="opacity" val="1" valType="code" updates="constant"/>\u000a        <Param name="colorSpace" val="rgb" valType="str" updates="constant"/>\u000a        <Param name="name" val="Instr_or_3_2" valType="code" updates="None"/>\u000a        <Param name="wrapWidth" val="" valType="code" updates="constant"/>\u000a        <Param name="color" val="gray" valType="str" updates="constant"/>\u000a        <Param name="text" val="or" valType="str" updates="constant"/>\u000a        <Param name="stopVal" val="" valType="code" updates="constant"/>\u000a        <Param name="durationEstim" val="" valType="code" updates="None"/>\u000a        <Param name="pos" val="[.8, 0.7]" valType="code" updates="constant"/>\u000a        <Param name="flip" val="" valType="str" updates="constant"/>\u000a        <Param name="startEstim" val="" valType="code" updates="None"/>\u000a        <Param name="units" val="from exp settings" valType="str" updates="None"/>\u000a        <Param name="startType" val="time (s)" valType="str" updates="None"/>\u000a        <Param name="ori" val="0" valType="code" updates="constant"/>\u000a        <Param name="stopType" val="duration (s)" valType="str" updates="None"/>\u000a        <Param name="startVal" val="0.0" valType="code" updates="None"/>\u000a        <Param name="font" val="Arial" valType="str" updates="constant"/>\u000a        <Param name="letterHeight" val="0.1" valType="code" updates="constant"/>\u000a      </TextComponent>\u000a      <TextComponent name="Instr_Good_3">\u000a        <Param name="opacity" val="1" valType="code" updates="constant"/>\u000a        <Param name="colorSpace" val="rgb" valType="str" updates="constant"/>\u000a        <Param name="name" val="Instr_Good_3" valType="code" updates="None"/>\u000a        <Param name="wrapWidth" val="" valType="code" updates="constant"/>\u000a        <Param name="color" val="limegreen" valType="str" updates="constant"/>\u000a        <Param name="text" val="Good" valType="str" updates="constant"/>\u000a        <Param name="stopVal" val="" valType="code" updates="constant"/>\u000a        <Param name="durationEstim" val="" valType="code" updates="None"/>\u000a        <Param name="pos" val="[.8, 0.6]" valType="code" updates="constant"/>\u000a        <Param name="flip" val="" valType="str" updates="constant"/>\u000a        <Param name="startEstim" val="" valType="code" updates="None"/>\u000a        <Param name="units" val="from exp settings" valType="str" updates="None"/>\u000a        <Param name="startType" val="time (s)" valType="str" updates="None"/>\u000a        <Param name="ori" val="0" valType="code" updates="constant"/>\u000a        <Param name="stopType" val="duration (s)" valType="str" updates="None"/>\u000a        <Param name="startVal" val="0.0" valType="code" updates="None"/>\u000a        <Param name="font" val="Arial" valType="str" updates="constant"/>\u000a        <Param name="letterHeight" val="0.15" valType="code" updates="constant"/>\u000a      </TextComponent>\u000a      <KeyboardComponent name="Instr_key_3">\u000a        <Param name="correctAns" val="" valType="str" updates="constant"/>\u000a        <Param name="storeCorrect" val="False" valType="bool" updates="constant"/>\u000a        <Param name="name" val="Instr_key_3" valType="code" updates="None"/>\u000a        <Param name="stopVal" val="" valType="code" updates="constant"/>\u000a        <Param name="durationEstim" val="" valType="code" updates="None"/>\u000a        <Param name="forceEndRoutine" val="True" valType="bool" updates="constant"/>\u000a        <Param name="startEstim" val="" valType="code" updates="None"/>\u000a        <Param name="discard previous" val="True" valType="bool" updates="constant"/>\u000a        <Param name="startType" val="time (s)" valType="str" updates="None"/>\u000a        <Param name="allowedKeys" val="'space'" valType="code" updates="constant"/>\u000a        <Param name="stopType" val="duration (s)" valType="str" updates="None"/>\u000a        <Param name="startVal" val="0.0" valType="code" updates="None"/>\u000a        <Param name="store" val="last key" valType="str" updates="constant"/>\u000a      </KeyboardComponent>\u000a    </Routine>\u000a    <Routine name="Instructions">\u000a      <TextComponent name="Instr">\u000a        <Param name="opacity" val="1" valType="code" updates="constant"/>\u000a        <Param name="colorSpace" val="rgb" valType="str" updates="constant"/>\u000a        <Param name="name" val="Instr" valType="code" updates="None"/>\u000a        <Param name="wrapWidth" val="1.2" valType="code" updates="constant"/>\u000a        <Param name="color" val="white" valType="str" updates="constant"/>\u000a        <Param name="text" val="In the next task, you will be presented with a set of words or images. Your job is to classify each word as quickly as you can, while making as few mistakes as possible.&#13;&#10;&#13;&#10;Keep your index fingers on the 'e' and 'i' keys. Press the 'e' key to indicate that the word belongs in the category on the left, and press the 'i' key to indicate the category on the right. &#13;&#10;&#13;&#10;The four categories and the words that go in each category are described on the next screen.&#13;&#10;&#13;&#10;Press the spacebar to continue." valType="str" updates="constant"/>\u000a        <Param name="stopVal" val="" valType="code" updates="constant"/>\u000a        <Param name="durationEstim" val="" valType="code" updates="None"/>\u000a        <Param name="pos" val="[0.03, 0]" valType="code" updates="constant"/>\u000a        <Param name="flip" val="" valType="str" updates="constant"/>\u000a        <Param name="startEstim" val="" valType="code" updates="None"/>\u000a        <Param name="units" val="from exp settings" valType="str" updates="None"/>\u000a        <Param name="startType" val="time (s)" valType="str" updates="None"/>\u000a        <Param name="ori" val="0" valType="code" updates="constant"/>\u000a        <Param name="stopType" val="duration (s)" valType="str" updates="None"/>\u000a        <Param name="startVal" val="0.0" valType="code" updates="None"/>\u000a        <Param name="font" val="Arial" valType="str" updates="constant"/>\u000a        <Param name="letterHeight" val="0.08" valType="code" updates="constant"/>\u000a      </TextComponent>\u000a      <KeyboardComponent name="key_resp_2">\u000a        <Param name="correctAns" val="" valType="str" updates="constant"/>\u000a        <Param name="storeCorrect" val="False" valType="bool" updates="constant"/>\u000a        <Param name="name" val="key_resp_2" valType="code" updates="None"/>\u000a        <Param name="stopVal" val="" valType="code" updates="constant"/>\u000a        <Param name="durationEstim" val="" valType="code" updates="None"/>\u000a        <Param name="forceEndRoutine" val="True" valType="bool" updates="constant"/>\u000a        <Param name="startEstim" val="" valType="code" updates="None"/>\u000a        <Param name="discard previous" val="True" valType="bool" updates="constant"/>\u000a        <Param name="startType" val="time (s)" valType="str" updates="None"/>\u000a        <Param name="allowedKeys" val="'space'" valType="code" updates="constant"/>\u000a        <Param name="stopType" val="duration (s)" valType="str" updates="None"/>\u000a        <Param name="startVal" val="0" valType="code" updates="None"/>\u000a        <Param name="store" val="last key" valType="str" updates="constant"/>\u000a      </KeyboardComponent>\u000a      <CodeComponent name="side_code">\u000a        <Param name="Begin Experiment" val="if expInfo['side'] == '1': expInfo['side'] = 1&#10;else: expInfo['side'] = -1&#10;side = expInfo['side']&#10;# side flips categories R/L, affects scoring&#10;&#10;def corr(letter, side, condition):&#10;    # reverse e/i if side is -1&#10;    if side == 1:&#10;      return letter&#10;    else:&#10;        if condition == 'bad' or condition == 'good':&#10;            return letter&#10;        else:&#10;            if letter == 'e': return 'i'&#10;            if letter == 'i': return 'e'" valType="extendedCode" updates="constant"/>\u000a        <Param name="name" val="side_code" valType="code" updates="None"/>\u000a        <Param name="Each Frame" val="" valType="extendedCode" updates="constant"/>\u000a        <Param name="Begin Routine" val="" valType="extendedCode" updates="constant"/>\u000a        <Param name="End Routine" val="" valType="extendedCode" updates="constant"/>\u000a        <Param name="End Experiment" val="" valType="extendedCode" updates="constant"/>\u000a      </CodeComponent>\u000a    </Routine>\u000a    <Routine name="Instr_2">\u000a      <KeyboardComponent name="Instr_key_2">\u000a        <Param name="correctAns" val="" valType="str" updates="constant"/>\u000a        <Param name="storeCorrect" val="False" valType="bool" updates="constant"/>\u000a        <Param name="name" val="Instr_key_2" valType="code" updates="None"/>\u000a        <Param name="stopVal" val="" valType="code" updates="constant"/>\u000a        <Param name="durationEstim" val="" valType="code" updates="None"/>\u000a        <Param name="forceEndRoutine" val="True" valType="bool" updates="constant"/>\u000a        <Param name="startEstim" val="" valType="code" updates="None"/>\u000a        <Param name="discard previous" val="True" valType="bool" updates="constant"/>\u000a        <Param name="startType" val="time (s)" valType="str" updates="None"/>\u000a        <Param name="allowedKeys" val="'space'" valType="code" updates="constant"/>\u000a        <Param name="stopType" val="duration (s)" valType="str" updates="None"/>\u000a        <Param name="startVal" val="0.0" valType="code" updates="None"/>\u000a        <Param name="store" val="last key" valType="str" updates="constant"/>\u000a      </KeyboardComponent>\u000a      <TextComponent name="Instru2">\u000a        <Param name="opacity" val="1" valType="code" updates="constant"/>\u000a        <Param name="colorSpace" val="rgb" valType="str" updates="constant"/>\u000a        <Param name="name" val="Instru2" valType="code" updates="None"/>\u000a        <Param name="wrapWidth" val="1.2" valType="code" updates="constant"/>\u000a        <Param name="color" val="white" valType="str" updates="constant"/>\u000a        <Param name="text" val="In this next set, you will be determining if a word is &quot;good&quot; or &quot;bad&quot; as follows:&#13;&#10;&#13;&#10;&quot;Good&quot;: Rainbow, Cake, Sunshine, Laughter, Peace, Heaven&#13;&#10;&#13;&#10;&quot;Bad&quot;: Agony, Hell, Ugly, Vomit, Poison, Rotten&#13;&#10;&#13;&#10;Remember to press 'e' to sort the word into the category on the left, and 'i' to sort it into the category on the right.&#13;&#10;&#13;&#10;Press the spacebar to begin the trials" valType="str" updates="constant"/>\u000a        <Param name="stopVal" val="" valType="code" updates="constant"/>\u000a        <Param name="durationEstim" val="" valType="code" updates="None"/>\u000a        <Param name="pos" val="[0, 0]" valType="code" updates="constant"/>\u000a        <Param name="flip" val="" valType="str" updates="constant"/>\u000a        <Param name="startEstim" val="" valType="code" updates="None"/>\u000a        <Param name="units" val="from exp settings" valType="str" updates="None"/>\u000a        <Param name="startType" val="time (s)" valType="str" updates="None"/>\u000a        <Param name="ori" val="0" valType="code" updates="constant"/>\u000a        <Param name="stopType" val="duration (s)" valType="str" updates="None"/>\u000a        <Param name="startVal" val="0.0" valType="code" updates="None"/>\u000a        <Param name="font" val="Arial" valType="str" updates="constant"/>\u000a        <Param name="letterHeight" val="0.08" valType="code" updates="constant"/>\u000a      </TextComponent>\u000a      <TextComponent name="Instr_Bad">\u000a        <Param name="opacity" val="1" valType="code" updates="constant"/>\u000a        <Param name="colorSpace" val="rgb" valType="str" updates="constant"/>\u000a        <Param name="name" val="Instr_Bad" valType="code" updates="None"/>\u000a        <Param name="wrapWidth" val="" valType="code" updates="constant"/>\u000a        <Param name="color" val="limegreen" valType="str" updates="constant"/>\u000a        <Param name="text" val="Bad" valType="str" updates="constant"/>\u000a        <Param name="stopVal" val="" valType="code" updates="constant"/>\u000a        <Param name="durationEstim" val="" valType="code" updates="None"/>\u000a        <Param name="pos" val="[-.8, 0.8]" valType="code" updates="constant"/>\u000a        <Param name="flip" val="" valType="str" updates="constant"/>\u000a        <Param name="startEstim" val="" valType="code" updates="None"/>\u000a        <Param name="units" val="from exp settings" valType="str" updates="None"/>\u000a        <Param name="startType" val="time (s)" valType="str" updates="None"/>\u000a        <Param name="ori" val="0" valType="code" updates="constant"/>\u000a        <Param name="stopType" val="duration (s)" valType="str" updates="None"/>\u000a        <Param name="startVal" val="0.0" valType="code" updates="None"/>\u000a        <Param name="font" val="Arial" valType="str" updates="constant"/>\u000a        <Param name="letterHeight" val="0.15" valType="code" updates="constant"/>\u000a      </TextComponent>\u000a      <TextComponent name="Instr_Good">\u000a        <Param name="opacity" val="1" valType="code" updates="constant"/>\u000a        <Param name="colorSpace" val="rgb" valType="str" updates="constant"/>\u000a        <Param name="name" val="Instr_Good" valType="code" updates="None"/>\u000a        <Param name="wrapWidth" val="" valType="code" updates="constant"/>\u000a        <Param name="color" val="limegreen" valType="str" updates="constant"/>\u000a        <Param name="text" val="Good" valType="str" updates="constant"/>\u000a        <Param name="stopVal" val="" valType="code" updates="constant"/>\u000a        <Param name="durationEstim" val="" valType="code" updates="None"/>\u000a        <Param name="pos" val="[.8, 0.8]" valType="code" updates="constant"/>\u000a        <Param name="flip" val="" valType="str" updates="constant"/>\u000a        <Param name="startEstim" val="" valType="code" updates="None"/>\u000a        <Param name="units" val="from exp settings" valType="str" updates="None"/>\u000a        <Param name="startType" val="time (s)" valType="str" updates="None"/>\u000a        <Param name="ori" val="0" valType="code" updates="constant"/>\u000a        <Param name="stopType" val="duration (s)" valType="str" updates="None"/>\u000a        <Param name="startVal" val="0.0" valType="code" updates="None"/>\u000a        <Param name="font" val="Arial" valType="str" updates="constant"/>\u000a        <Param name="letterHeight" val="0.15" valType="code" updates="constant"/>\u000a      </TextComponent>\u000a    </Routine>\u000a    <Routine name="Instr_6">\u000a      <TextComponent name="Instr6">\u000a        <Param name="opacity" val="1" valType="code" updates="constant"/>\u000a        <Param name="colorSpace" val="rgb" valType="str" updates="constant"/>\u000a        <Param name="name" val="Instr6" valType="code" updates="None"/>\u000a        <Param name="wrapWidth" val="1.2" valType="code" updates="constant"/>\u000a        <Param name="color" val="white" valType="str" updates="constant"/>\u000a        <Param name="text" val="See above, the four categories now appear together in a new configuration. Remember that each item belongs to only one group." valType="str" updates="constant"/>\u000a        <Param name="stopVal" val="" valType="code" updates="constant"/>\u000a        <Param name="durationEstim" val="" valType="code" updates="None"/>\u000a        <Param name="pos" val="[0, 0]" valType="code" updates="constant"/>\u000a        <Param name="flip" val="" valType="str" updates="constant"/>\u000a        <Param name="startEstim" val="" valType="code" updates="None"/>\u000a        <Param name="units" val="from exp settings" valType="str" updates="None"/>\u000a        <Param name="startType" val="time (s)" valType="str" updates="None"/>\u000a        <Param name="ori" val="0" valType="code" updates="constant"/>\u000a        <Param name="stopType" val="duration (s)" valType="str" updates="None"/>\u000a        <Param name="startVal" val="0.0" valType="code" updates="None"/>\u000a        <Param name="font" val="Arial" valType="str" updates="constant"/>\u000a        <Param name="letterHeight" val="0.08" valType="code" updates="constant"/>\u000a      </TextComponent>\u000a      <TextComponent name="Instr_Prac_6">\u000a        <Param name="opacity" val="1" valType="code" updates="constant"/>\u000a        <Param name="colorSpace" val="rgb" valType="str" updates="constant"/>\u000a        <Param name="name" val="Instr_Prac_6" valType="code" updates="None"/>\u000a        <Param name="wrapWidth" val="" valType="code" updates="constant"/>\u000a        <Param name="color" val="skyblue" valType="str" updates="constant"/>\u000a        <Param name="text" val="Practical" valType="str" updates="constant"/>\u000a        <Param name="stopVal" val="" valType="code" updates="constant"/>\u000a        <Param name="durationEstim" val="" valType="code" updates="None"/>\u000a        <Param name="pos" val="[-0.8*side,0.8]" valType="code" updates="constant"/>\u000a        <Param name="flip" val="" valType="str" updates="constant"/>\u000a        <Param name="startEstim" val="" valType="code" updates="None"/>\u000a        <Param name="units" val="from exp settings" valType="str" updates="None"/>\u000a        <Param name="startType" val="time (s)" valType="str" updates="None"/>\u000a        <Param name="ori" val="0" valType="code" updates="constant"/>\u000a        <Param name="stopType" val="duration (s)" valType="str" updates="None"/>\u000a        <Param name="startVal" val="0.0" valType="code" updates="None"/>\u000a        <Param name="font" val="Arial" valType="str" updates="constant"/>\u000a        <Param name="letterHeight" val="0.15" valType="code" updates="constant"/>\u000a      </TextComponent>\u000a      <TextComponent name="Instr_or_6">\u000a        <Param name="opacity" val="1" valType="code" updates="constant"/>\u000a        <Param name="colorSpace" val="rgb" valType="str" updates="constant"/>\u000a        <Param name="name" val="Instr_or_6" valType="code" updates="None"/>\u000a        <Param name="wrapWidth" val="" valType="code" updates="constant"/>\u000a        <Param name="color" val="gray" valType="str" updates="constant"/>\u000a        <Param name="text" val="or" valType="str" updates="constant"/>\u000a        <Param name="stopVal" val="" valType="code" updates="constant"/>\u000a        <Param name="durationEstim" val="" valType="code" updates="None"/>\u000a        <Param name="pos" val="[-0.8,0.7]" valType="code" updates="constant"/>\u000a        <Param name="flip" val="" valType="str" updates="constant"/>\u000a        <Param name="startEstim" val="" valType="code" updates="None"/>\u000a        <Param name="units" val="from exp settings" valType="str" updates="None"/>\u000a        <Param name="startType" val="time (s)" valType="str" updates="None"/>\u000a        <Param name="ori" val="0" valType="code" updates="constant"/>\u000a        <Param name="stopType" val="duration (s)" valType="str" updates="None"/>\u000a        <Param name="startVal" val="0.0" valType="code" updates="None"/>\u000a        <Param name="font" val="Arial" valType="str" updates="constant"/>\u000a        <Param name="letterHeight" val="0.1" valType="code" updates="constant"/>\u000a      </TextComponent>\u000a      <TextComponent name="Instr_Bad_6">\u000a        <Param name="opacity" val="1" valType="code" updates="constant"/>\u000a        <Param name="colorSpace" val="rgb" valType="str" updates="constant"/>\u000a        <Param name="name" val="Instr_Bad_6" valType="code" updates="None"/>\u000a        <Param name="wrapWidth" val="" valType="code" updates="constant"/>\u000a        <Param name="color" val="limegreen" valType="str" updates="constant"/>\u000a        <Param name="text" val="Bad" valType="str" updates="constant"/>\u000a        <Param name="stopVal" val="" valType="code" updates="constant"/>\u000a        <Param name="durationEstim" val="" valType="code" updates="None"/>\u000a        <Param name="pos" val="[-0.8,0.6]" valType="code" updates="constant"/>\u000a        <Param name="flip" val="" valType="str" updates="constant"/>\u000a        <Param name="startEstim" val="" valType="code" updates="None"/>\u000a        <Param name="units" val="from exp settings" valType="str" updates="None"/>\u000a        <Param name="startType" val="time (s)" valType="str" updates="None"/>\u000a        <Param name="ori" val="0" valType="code" updates="constant"/>\u000a        <Param name="stopType" val="duration (s)" valType="str" updates="None"/>\u000a        <Param name="startVal" val="0.0" valType="code" updates="None"/>\u000a        <Param name="font" val="Arial" valType="str" updates="constant"/>\u000a        <Param name="letterHeight" val="0.15" valType="code" updates="constant"/>\u000a      </TextComponent>\u000a      <TextComponent name="Instr_Creat_6">\u000a        <Param name="opacity" val="1" valType="code" updates="constant"/>\u000a        <Param name="colorSpace" val="rgb" valType="str" updates="constant"/>\u000a        <Param name="name" val="Instr_Creat_6" valType="code" updates="None"/>\u000a        <Param name="wrapWidth" val="" valType="code" updates="constant"/>\u000a        <Param name="color" val="skyblue" valType="str" updates="constant"/>\u000a        <Param name="text" val="Creative" valType="str" updates="constant"/>\u000a        <Param name="stopVal" val="" valType="code" updates="constant"/>\u000a        <Param name="durationEstim" val="" valType="code" updates="None"/>\u000a        <Param name="pos" val="[0.8*side,0.8]" valType="code" updates="constant"/>\u000a        <Param name="flip" val="" valType="str" updates="constant"/>\u000a        <Param name="startEstim" val="" valType="code" updates="None"/>\u000a        <Param name="units" val="from exp settings" valType="str" updates="None"/>\u000a        <Param name="startType" val="time (s)" valType="str" updates="None"/>\u000a        <Param name="ori" val="0" valType="code" updates="constant"/>\u000a        <Param name="stopType" val="duration (s)" valType="str" updates="None"/>\u000a        <Param name="startVal" val="0.0" valType="code" updates="None"/>\u000a        <Param name="font" val="Arial" valType="str" updates="constant"/>\u000a        <Param name="letterHeight" val="0.15" valType="code" updates="constant"/>\u000a      </TextComponent>\u000a      <TextComponent name="Instr_or_6_2">\u000a        <Param name="opacity" val="1" valType="code" updates="constant"/>\u000a        <Param name="colorSpace" val="rgb" valType="str" updates="constant"/>\u000a        <Param name="name" val="Instr_or_6_2" valType="code" updates="None"/>\u000a        <Param name="wrapWidth" val="" valType="code" updates="constant"/>\u000a        <Param name="color" val="gray" valType="str" updates="constant"/>\u000a        <Param name="text" val="or" valType="str" updates="constant"/>\u000a        <Param name="stopVal" val="" valType="code" updates="constant"/>\u000a        <Param name="durationEstim" val="" valType="code" updates="None"/>\u000a        <Param name="pos" val="[0.8,0.7]" valType="code" updates="constant"/>\u000a        <Param name="flip" val="" valType="str" updates="constant"/>\u000a        <Param name="startEstim" val="" valType="code" updates="None"/>\u000a        <Param name="units" val="from exp settings" valType="str" updates="None"/>\u000a        <Param name="startType" val="time (s)" valType="str" updates="None"/>\u000a        <Param name="ori" val="0" valType="code" updates="constant"/>\u000a        <Param name="stopType" val="duration (s)" valType="str" updates="None"/>\u000a        <Param name="startVal" val="0.0" valType="code" updates="None"/>\u000a        <Param name="font" val="Arial" valType="str" updates="constant"/>\u000a        <Param name="letterHeight" val="0.1" valType="code" updates="constant"/>\u000a      </TextComponent>\u000a      <TextComponent name="Instr_Good_6">\u000a        <Param name="opacity" val="1" valType="code" updates="constant"/>\u000a        <Param name="colorSpace" val="rgb" valType="str" updates="constant"/>\u000a        <Param name="name" val="Instr_Good_6" valType="code" updates="None"/>\u000a        <Param name="wrapWidth" val="" valType="code" updates="constant"/>\u000a        <Param name="color" val="limegreen" valType="str" updates="constant"/>\u000a        <Param name="text" val="Good" valType="str" updates="constant"/>\u000a        <Param name="stopVal" val="" valType="code" updates="constant"/>\u000a        <Param name="durationEstim" val="" valType="code" updates="None"/>\u000a        <Param name="pos" val="[0.8,0.6]" valType="code" updates="constant"/>\u000a        <Param name="flip" val="" valType="str" updates="constant"/>\u000a        <Param name="startEstim" val="" valType="code" updates="None"/>\u000a        <Param name="units" val="from exp settings" valType="str" updates="None"/>\u000a        <Param name="startType" val="time (s)" valType="str" updates="None"/>\u000a        <Param name="ori" val="0" valType="code" updates="constant"/>\u000a        <Param name="stopType" val="duration (s)" valType="str" updates="None"/>\u000a        <Param name="startVal" val="0.0" valType="code" updates="None"/>\u000a        <Param name="font" val="Arial" valType="str" updates="constant"/>\u000a        <Param name="letterHeight" val="0.15" valType="code" updates="constant"/>\u000a      </TextComponent>\u000a      <KeyboardComponent name="Instr_key_6">\u000a        <Param name="correctAns" val="" valType="str" updates="constant"/>\u000a        <Param name="storeCorrect" val="False" valType="bool" updates="constant"/>\u000a        <Param name="name" val="Instr_key_6" valType="code" updates="None"/>\u000a        <Param name="stopVal" val="" valType="code" updates="constant"/>\u000a        <Param name="durationEstim" val="" valType="code" updates="None"/>\u000a        <Param name="forceEndRoutine" val="True" valType="bool" updates="constant"/>\u000a        <Param name="startEstim" val="" valType="code" updates="None"/>\u000a        <Param name="discard previous" val="True" valType="bool" updates="constant"/>\u000a        <Param name="startType" val="time (s)" valType="str" updates="None"/>\u000a        <Param name="allowedKeys" val="'space'" valType="code" updates="constant"/>\u000a        <Param name="stopType" val="duration (s)" valType="str" updates="None"/>\u000a        <Param name="startVal" val="0.0" valType="code" updates="None"/>\u000a        <Param name="store" val="last key" valType="str" updates="constant"/>\u000a      </KeyboardComponent>\u000a    </Routine>\u000a    <Routine name="Instr_4">\u000a      <TextComponent name="Instr4">\u000a        <Param name="opacity" val="1" valType="code" updates="constant"/>\u000a        <Param name="colorSpace" val="rgb" valType="str" updates="constant"/>\u000a        <Param name="name" val="Instr4" valType="code" updates="None"/>\u000a        <Param name="wrapWidth" val="1.2" valType="code" updates="constant"/>\u000a        <Param name="color" val="white" valType="str" updates="constant"/>\u000a        <Param name="text" val="Sort the same four categories again. The same rules still apply.&#13;&#10;&#13;&#10;Press the spacebar to begin the next set of trials." valType="str" updates="constant"/>\u000a        <Param name="stopVal" val="" valType="code" updates="constant"/>\u000a        <Param name="durationEstim" val="" valType="code" updates="None"/>\u000a        <Param name="pos" val="[0, 0]" valType="code" updates="constant"/>\u000a        <Param name="flip" val="" valType="str" updates="constant"/>\u000a        <Param name="startEstim" val="" valType="code" updates="None"/>\u000a        <Param name="units" val="from exp settings" valType="str" updates="None"/>\u000a        <Param name="startType" val="time (s)" valType="str" updates="None"/>\u000a        <Param name="ori" val="0" valType="code" updates="constant"/>\u000a        <Param name="stopType" val="duration (s)" valType="str" updates="None"/>\u000a        <Param name="startVal" val="0.0" valType="code" updates="None"/>\u000a        <Param name="font" val="Arial" valType="str" updates="constant"/>\u000a        <Param name="letterHeight" val="0.08" valType="code" updates="constant"/>\u000a      </TextComponent>\u000a      <KeyboardComponent name="Instr_key_4">\u000a        <Param name="correctAns" val="" valType="str" updates="constant"/>\u000a        <Param name="storeCorrect" val="False" valType="bool" updates="constant"/>\u000a        <Param name="name" val="Instr_key_4" valType="code" updates="None"/>\u000a        <Param name="stopVal" val="" valType="code" updates="constant"/>\u000a        <Param name="durationEstim" val="" valType="code" updates="None"/>\u000a        <Param name="forceEndRoutine" val="True" valType="bool" updates="constant"/>\u000a        <Param name="startEstim" val="" valType="code" updates="None"/>\u000a        <Param name="discard previous" val="True" valType="bool" updates="constant"/>\u000a        <Param name="startType" val="time (s)" valType="str" updates="None"/>\u000a        <Param name="allowedKeys" val="'space'" valType="code" updates="constant"/>\u000a        <Param name="stopType" val="duration (s)" valType="str" updates="None"/>\u000a        <Param name="startVal" val="0.0" valType="code" updates="None"/>\u000a        <Param name="store" val="last key" valType="str" updates="constant"/>\u000a      </KeyboardComponent>\u000a      <TextComponent name="Instr_Creat_4">\u000a        <Param name="opacity" val="1" valType="code" updates="constant"/>\u000a        <Param name="colorSpace" val="rgb" valType="str" updates="constant"/>\u000a        <Param name="name" val="Instr_Creat_4" valType="code" updates="None"/>\u000a        <Param name="wrapWidth" val="" valType="code" updates="constant"/>\u000a        <Param name="color" val="skyblue" valType="str" updates="constant"/>\u000a        <Param name="text" val="Creative" valType="str" updates="constant"/>\u000a        <Param name="stopVal" val="" valType="code" updates="constant"/>\u000a        <Param name="durationEstim" val="" valType="code" updates="None"/>\u000a        <Param name="pos" val="[-0.8*side,0.8]" valType="code" updates="constant"/>\u000a        <Param name="flip" val="" valType="str" updates="constant"/>\u000a        <Param name="startEstim" val="" valType="code" updates="None"/>\u000a        <Param name="units" val="from exp settings" valType="str" updates="None"/>\u000a        <Param name="startType" val="time (s)" valType="str" updates="None"/>\u000a        <Param name="ori" val="0" valType="code" updates="constant"/>\u000a        <Param name="stopType" val="duration (s)" valType="str" updates="None"/>\u000a        <Param name="startVal" val="0.0" valType="code" updates="None"/>\u000a        <Param name="font" val="Arial" valType="str" updates="constant"/>\u000a        <Param name="letterHeight" val="0.15" valType="code" updates="constant"/>\u000a      </TextComponent>\u000a      <TextComponent name="Instr_or_4">\u000a        <Param name="opacity" val="1" valType="code" updates="constant"/>\u000a        <Param name="colorSpace" val="rgb" valType="str" updates="constant"/>\u000a        <Param name="name" val="Instr_or_4" valType="code" updates="None"/>\u000a        <Param name="wrapWidth" val="" valType="code" updates="constant"/>\u000a        <Param name="color" val="gray" valType="str" updates="constant"/>\u000a        <Param name="text" val="or" valType="str" updates="constant"/>\u000a        <Param name="stopVal" val="" valType="code" updates="constant"/>\u000a        <Param name="durationEstim" val="" valType="code" updates="None"/>\u000a        <Param name="pos" val="[-0.8,0.7]" valType="code" updates="constant"/>\u000a        <Param name="flip" val="" valType="str" updates="constant"/>\u000a        <Param name="startEstim" val="" valType="code" updates="None"/>\u000a        <Param name="units" val="from exp settings" valType="str" updates="None"/>\u000a        <Param name="startType" val="time (s)" valType="str" updates="None"/>\u000a        <Param name="ori" val="0" valType="code" updates="constant"/>\u000a        <Param name="stopType" val="duration (s)" valType="str" updates="None"/>\u000a        <Param name="startVal" val="0.0" valType="code" updates="None"/>\u000a        <Param name="font" val="Arial" valType="str" updates="constant"/>\u000a        <Param name="letterHeight" val="0.1" valType="code" updates="constant"/>\u000a      </TextComponent>\u000a      <TextComponent name="Instr_Bad_4">\u000a        <Param name="opacity" val="1" valType="code" updates="constant"/>\u000a        <Param name="colorSpace" val="rgb" valType="str" updates="constant"/>\u000a        <Param name="name" val="Instr_Bad_4" valType="code" updates="None"/>\u000a        <Param name="wrapWidth" val="" valType="code" updates="constant"/>\u000a        <Param name="color" val="limegreen" valType="str" updates="constant"/>\u000a        <Param name="text" val="Bad" valType="str" updates="constant"/>\u000a        <Param name="stopVal" val="" valType="code" updates="constant"/>\u000a        <Param name="durationEstim" val="" valType="code" updates="None"/>\u000a        <Param name="pos" val="[-0.8,0.6]" valType="code" updates="constant"/>\u000a        <Param name="flip" val="" valType="str" updates="constant"/>\u000a        <Param name="startEstim" val="" valType="code" updates="None"/>\u000a        <Param name="units" val="from exp settings" valType="str" updates="None"/>\u000a        <Param name="startType" val="time (s)" valType="str" updates="None"/>\u000a        <Param name="ori" val="0" valType="code" updates="constant"/>\u000a        <Param name="stopType" val="duration (s)" valType="str" updates="None"/>\u000a        <Param name="startVal" val="0.0" valType="code" updates="None"/>\u000a        <Param name="font" val="Arial" valType="str" updates="constant"/>\u000a        <Param name="letterHeight" val="0.15" valType="code" updates="constant"/>\u000a      </TextComponent>\u000a      <TextComponent name="Instr_Prac_4">\u000a        <Param name="opacity" val="1" valType="code" updates="constant"/>\u000a        <Param name="colorSpace" val="rgb" valType="str" updates="constant"/>\u000a        <Param name="name" val="Instr_Prac_4" valType="code" updates="None"/>\u000a        <Param name="wrapWidth" val="" valType="code" updates="constant"/>\u000a        <Param name="color" val="skyblue" valType="str" updates="constant"/>\u000a        <Param name="text" val="Practical" valType="str" updates="constant"/>\u000a        <Param name="stopVal" val="" valType="code" updates="constant"/>\u000a        <Param name="durationEstim" val="" valType="code" updates="None"/>\u000a        <Param name="pos" val="[0.8*side,0.8]" valType="code" updates="constant"/>\u000a        <Param name="flip" val="" valType="str" updates="constant"/>\u000a        <Param name="startEstim" val="" valType="code" updates="None"/>\u000a        <Param name="units" val="from exp settings" valType="str" updates="None"/>\u000a        <Param name="startType" val="time (s)" valType="str" updates="None"/>\u000a        <Param name="ori" val="0" valType="code" updates="constant"/>\u000a        <Param name="stopType" val="duration (s)" valType="str" updates="None"/>\u000a        <Param name="startVal" val="0.0" valType="code" updates="None"/>\u000a        <Param name="font" val="Arial" valType="str" updates="constant"/>\u000a        <Param name="letterHeight" val="0.15" valType="code" updates="constant"/>\u000a      </TextComponent>\u000a      <TextComponent name="Instr_or_4_2">\u000a        <Param name="opacity" val="1" valType="code" updates="constant"/>\u000a        <Param name="colorSpace" val="rgb" valType="str" updates="constant"/>\u000a        <Param name="name" val="Instr_or_4_2" valType="code" updates="None"/>\u000a        <Param name="wrapWidth" val="" valType="code" updates="constant"/>\u000a        <Param name="color" val="gray" valType="str" updates="constant"/>\u000a        <Param name="text" val="or" valType="str" updates="constant"/>\u000a        <Param name="stopVal" val="" valType="code" updates="constant"/>\u000a        <Param name="durationEstim" val="" valType="code" updates="None"/>\u000a        <Param name="pos" val="[0.8,0.7]" valType="code" updates="constant"/>\u000a        <Param name="flip" val="" valType="str" updates="constant"/>\u000a        <Param name="startEstim" val="" valType="code" updates="None"/>\u000a        <Param name="units" val="from exp settings" valType="str" updates="None"/>\u000a        <Param name="startType" val="time (s)" valType="str" updates="None"/>\u000a        <Param name="ori" val="0" valType="code" updates="constant"/>\u000a        <Param name="stopType" val="duration (s)" valType="str" updates="None"/>\u000a        <Param name="startVal" val="0.0" valType="code" updates="None"/>\u000a        <Param name="font" val="Arial" valType="str" updates="constant"/>\u000a        <Param name="letterHeight" val="0.1" valType="code" updates="constant"/>\u000a      </TextComponent>\u000a      <TextComponent name="Instr_Good_4">\u000a        <Param name="opacity" val="1" valType="code" updates="constant"/>\u000a        <Param name="colorSpace" val="rgb" valType="str" updates="constant"/>\u000a        <Param name="name" val="Instr_Good_4" valType="code" updates="None"/>\u000a        <Param name="wrapWidth" val="" valType="code" updates="constant"/>\u000a        <Param name="color" val="limegreen" valType="str" updates="constant"/>\u000a        <Param name="text" val="Good" valType="str" updates="constant"/>\u000a        <Param name="stopVal" val="" valType="code" updates="constant"/>\u000a        <Param name="durationEstim" val="" valType="code" updates="None"/>\u000a        <Param name="pos" val="[0.8,0.6]" valType="code" updates="constant"/>\u000a        <Param name="flip" val="" valType="str" updates="constant"/>\u000a        <Param name="startEstim" val="" valType="code" updates="None"/>\u000a        <Param name="units" val="from exp settings" valType="str" updates="None"/>\u000a        <Param name="startType" val="time (s)" valType="str" updates="None"/>\u000a        <Param name="ori" val="0" valType="code" updates="constant"/>\u000a        <Param name="stopType" val="duration (s)" valType="str" updates="None"/>\u000a        <Param name="startVal" val="0.0" valType="code" updates="None"/>\u000a        <Param name="font" val="Arial" valType="str" updates="constant"/>\u000a        <Param name="letterHeight" val="0.15" valType="code" updates="constant"/>\u000a      </TextComponent>\u000a    </Routine>\u000a    <Routine name="thanks">\u000a      <TextComponent name="Thanks">\u000a        <Param name="opacity" val="1" valType="code" updates="constant"/>\u000a        <Param name="colorSpace" val="rgb" valType="str" updates="constant"/>\u000a        <Param name="name" val="Thanks" valType="code" updates="None"/>\u000a        <Param name="wrapWidth" val="" valType="code" updates="constant"/>\u000a        <Param name="color" val="gray" valType="str" updates="constant"/>\u000a        <Param name="text" val="End of this part.&#13;&#10;&#13;&#10;Press space to end." valType="str" updates="constant"/>\u000a        <Param name="stopVal" val="1.0" valType="code" updates="constant"/>\u000a        <Param name="durationEstim" val="" valType="code" updates="None"/>\u000a        <Param name="pos" val="[0, 0]" valType="code" updates="constant"/>\u000a        <Param name="flip" val="" valType="str" updates="constant"/>\u000a        <Param name="startEstim" val="" valType="code" updates="None"/>\u000a        <Param name="units" val="from exp settings" valType="str" updates="None"/>\u000a        <Param name="startType" val="time (s)" valType="str" updates="None"/>\u000a        <Param name="ori" val="0" valType="code" updates="constant"/>\u000a        <Param name="stopType" val="duration (s)" valType="str" updates="None"/>\u000a        <Param name="startVal" val="1.0" valType="code" updates="None"/>\u000a        <Param name="font" val="Arial" valType="str" updates="constant"/>\u000a        <Param name="letterHeight" val="0.1" valType="code" updates="constant"/>\u000a      </TextComponent>\u000a      <KeyboardComponent name="key_resp_10">\u000a        <Param name="correctAns" val="" valType="str" updates="constant"/>\u000a        <Param name="storeCorrect" val="False" valType="bool" updates="constant"/>\u000a        <Param name="name" val="key_resp_10" valType="code" updates="None"/>\u000a        <Param name="stopVal" val="" valType="code" updates="constant"/>\u000a        <Param name="durationEstim" val="" valType="code" updates="None"/>\u000a        <Param name="forceEndRoutine" val="True" valType="bool" updates="constant"/>\u000a        <Param name="startEstim" val="" valType="code" updates="None"/>\u000a        <Param name="discard previous" val="True" valType="bool" updates="constant"/>\u000a        <Param name="startType" val="time (s)" valType="str" updates="None"/>\u000a        <Param name="allowedKeys" val="'space'" valType="code" updates="constant"/>\u000a        <Param name="stopType" val="duration (s)" valType="str" updates="None"/>\u000a        <Param name="startVal" val="0.0" valType="code" updates="None"/>\u000a        <Param name="store" val="nothing" valType="str" updates="constant"/>\u000a      </KeyboardComponent>\u000a    </Routine>\u000a    <Routine name="Instr_5">\u000a      <TextComponent name="Instr5">\u000a        <Param name="opacity" val="1" valType="code" updates="constant"/>\u000a        <Param name="colorSpace" val="rgb" valType="str" updates="constant"/>\u000a        <Param name="name" val="Instr5" valType="code" updates="None"/>\u000a        <Param name="wrapWidth" val="1.2" valType="code" updates="constant"/>\u000a        <Param name="color" val="white" valType="str" updates="constant"/>\u000a        <Param name="text" val="Notice above that there are only two categories and they have switched positions. The category that was previously on the right is now on the left, and the category that was on the left is now on the right. Sort the words into their appropriate categories based on these new positions.&#13;&#10;&#13;&#10;Press the spacebar to begin the next set of trials." valType="str" updates="constant"/>\u000a        <Param name="stopVal" val="" valType="code" updates="constant"/>\u000a        <Param name="durationEstim" val="" valType="code" updates="None"/>\u000a        <Param name="pos" val="[0, 0]" valType="code" updates="constant"/>\u000a        <Param name="flip" val="" valType="str" updates="constant"/>\u000a        <Param name="startEstim" val="" valType="code" updates="None"/>\u000a        <Param name="units" val="from exp settings" valType="str" updates="None"/>\u000a        <Param name="startType" val="time (s)" valType="str" updates="None"/>\u000a        <Param name="ori" val="0" valType="code" updates="constant"/>\u000a        <Param name="stopType" val="duration (s)" valType="str" updates="None"/>\u000a        <Param name="startVal" val="0.0" valType="code" updates="None"/>\u000a        <Param name="font" val="Arial" valType="str" updates="constant"/>\u000a        <Param name="letterHeight" val="0.08" valType="code" updates="constant"/>\u000a      </TextComponent>\u000a      <TextComponent name="Instr_Prac_5">\u000a        <Param name="opacity" val="1" valType="code" updates="constant"/>\u000a        <Param name="colorSpace" val="rgb" valType="str" updates="constant"/>\u000a        <Param name="name" val="Instr_Prac_5" valType="code" updates="None"/>\u000a        <Param name="wrapWidth" val="" valType="code" updates="constant"/>\u000a        <Param name="color" val="skyblue" valType="str" updates="constant"/>\u000a        <Param name="text" val="Practical" valType="str" updates="constant"/>\u000a        <Param name="stopVal" val="" valType="code" updates="constant"/>\u000a        <Param name="durationEstim" val="" valType="code" updates="None"/>\u000a        <Param name="pos" val="[-0.8*side,0.8]" valType="code" updates="constant"/>\u000a        <Param name="flip" val="" valType="str" updates="constant"/>\u000a        <Param name="startEstim" val="" valType="code" updates="None"/>\u000a        <Param name="units" val="from exp settings" valType="str" updates="None"/>\u000a        <Param name="startType" val="time (s)" valType="str" updates="None"/>\u000a        <Param name="ori" val="0" valType="code" updates="constant"/>\u000a        <Param name="stopType" val="duration (s)" valType="str" updates="None"/>\u000a        <Param name="startVal" val="0.0" valType="code" updates="None"/>\u000a        <Param name="font" val="Arial" valType="str" updates="constant"/>\u000a        <Param name="letterHeight" val="0.15" valType="code" updates="constant"/>\u000a      </TextComponent>\u000a      <TextComponent name="Instr_Creat_5">\u000a        <Param name="opacity" val="1" valType="code" updates="constant"/>\u000a        <Param name="colorSpace" val="rgb" valType="str" updates="constant"/>\u000a        <Param name="name" val="Instr_Creat_5" valType="code" updates="None"/>\u000a        <Param name="wrapWidth" val="" valType="code" updates="constant"/>\u000a        <Param name="color" val="skyblue" valType="str" updates="constant"/>\u000a        <Param name="text" val="Creative" valType="str" updates="constant"/>\u000a        <Param name="stopVal" val="" valType="code" updates="constant"/>\u000a        <Param name="durationEstim" val="" valType="code" updates="None"/>\u000a        <Param name="pos" val="[0.8*side,0.8]" valType="code" updates="constant"/>\u000a        <Param name="flip" val="" valType="str" updates="constant"/>\u000a        <Param name="startEstim" val="" valType="code" updates="None"/>\u000a        <Param name="units" val="from exp settings" valType="str" updates="None"/>\u000a        <Param name="startType" val="time (s)" valType="str" updates="None"/>\u000a        <Param name="ori" val="0" valType="code" updates="constant"/>\u000a        <Param name="stopType" val="duration (s)" valType="str" updates="None"/>\u000a        <Param name="startVal" val="0.0" valType="code" updates="None"/>\u000a        <Param name="font" val="Arial" valType="str" updates="constant"/>\u000a        <Param name="letterHeight" val="0.15" valType="code" updates="constant"/>\u000a      </TextComponent>\u000a      <KeyboardComponent name="Instr_key_5">\u000a        <Param name="correctAns" val="" valType="str" updates="constant"/>\u000a        <Param name="storeCorrect" val="False" valType="bool" updates="constant"/>\u000a        <Param name="name" val="Instr_key_5" valType="code" updates="None"/>\u000a        <Param name="stopVal" val="" valType="code" updates="constant"/>\u000a        <Param name="durationEstim" val="" valType="code" updates="None"/>\u000a        <Param name="forceEndRoutine" val="True" valType="bool" updates="constant"/>\u000a        <Param name="startEstim" val="" valType="code" updates="None"/>\u000a        <Param name="discard previous" val="True" valType="bool" updates="constant"/>\u000a        <Param name="startType" val="time (s)" valType="str" updates="None"/>\u000a        <Param name="allowedKeys" val="'space'" valType="code" updates="constant"/>\u000a        <Param name="stopType" val="duration (s)" valType="str" updates="None"/>\u000a        <Param name="startVal" val="0.0" valType="code" updates="None"/>\u000a        <Param name="store" val="last key" valType="str" updates="constant"/>\u000a      </KeyboardComponent>\u000a    </Routine>\u000a    <Routine name="Block_5">\u000a      <TextComponent name="Practical_5">\u000a        <Param name="opacity" val="1" valType="code" updates="constant"/>\u000a        <Param name="colorSpace" val="rgb" valType="str" updates="constant"/>\u000a        <Param name="name" val="Practical_5" valType="code" updates="None"/>\u000a        <Param name="wrapWidth" val="" valType="code" updates="constant"/>\u000a        <Param name="color" val="skyblue" valType="str" updates="constant"/>\u000a        <Param name="text" val="Practical" valType="str" updates="constant"/>\u000a        <Param name="stopVal" val="" valType="code" updates="constant"/>\u000a        <Param name="durationEstim" val="" valType="code" updates="None"/>\u000a        <Param name="pos" val="[-0.8*side,0.8]" valType="code" updates="constant"/>\u000a        <Param name="flip" val="" valType="str" updates="constant"/>\u000a        <Param name="startEstim" val="" valType="code" updates="None"/>\u000a        <Param name="units" val="from exp settings" valType="str" updates="None"/>\u000a        <Param name="startType" val="time (s)" valType="str" updates="None"/>\u000a        <Param name="ori" val="0" valType="code" updates="constant"/>\u000a        <Param name="stopType" val="duration (s)" valType="str" updates="None"/>\u000a        <Param name="startVal" val="0.0" valType="code" updates="None"/>\u000a        <Param name="font" val="Arial" valType="str" updates="constant"/>\u000a        <Param name="letterHeight" val="0.15" valType="code" updates="constant"/>\u000a      </TextComponent>\u000a      <TextComponent name="Creative_5">\u000a        <Param name="opacity" val="1" valType="code" updates="constant"/>\u000a        <Param name="colorSpace" val="rgb" valType="str" updates="constant"/>\u000a        <Param name="name" val="Creative_5" valType="code" updates="None"/>\u000a        <Param name="wrapWidth" val="" valType="code" updates="constant"/>\u000a        <Param name="color" val="skyblue" valType="str" updates="constant"/>\u000a        <Param name="text" val="Creative" valType="str" updates="constant"/>\u000a        <Param name="stopVal" val="" valType="code" updates="constant"/>\u000a        <Param name="durationEstim" val="" valType="code" updates="None"/>\u000a        <Param name="pos" val="[0.8*side,0.8]" valType="code" updates="constant"/>\u000a        <Param name="flip" val="" valType="str" updates="constant"/>\u000a        <Param name="startEstim" val="" valType="code" updates="None"/>\u000a        <Param name="units" val="from exp settings" valType="str" updates="None"/>\u000a        <Param name="startType" val="time (s)" valType="str" updates="None"/>\u000a        <Param name="ori" val="0" valType="code" updates="constant"/>\u000a        <Param name="stopType" val="duration (s)" valType="str" updates="None"/>\u000a        <Param name="startVal" val="0.0" valType="code" updates="None"/>\u000a        <Param name="font" val="Arial" valType="str" updates="constant"/>\u000a        <Param name="letterHeight" val="0.15" valType="code" updates="constant"/>\u000a      </TextComponent>\u000a      <TextComponent name="Word_5">\u000a        <Param name="opacity" val="1" valType="code" updates="constant"/>\u000a        <Param name="colorSpace" val="rgb" valType="str" updates="constant"/>\u000a        <Param name="name" val="Word_5" valType="code" updates="None"/>\u000a        <Param name="wrapWidth" val="" valType="code" updates="constant"/>\u000a        <Param name="color" val="$color" valType="str" updates="set every repeat"/>\u000a        <Param name="text" val="$word" valType="str" updates="set every repeat"/>\u000a        <Param name="stopVal" val="" valType="code" updates="constant"/>\u000a        <Param name="durationEstim" val="" valType="code" updates="None"/>\u000a        <Param name="pos" val="[0, 0]" valType="code" updates="constant"/>\u000a        <Param name="flip" val="" valType="str" updates="constant"/>\u000a        <Param name="startEstim" val="" valType="code" updates="None"/>\u000a        <Param name="units" val="from exp settings" valType="str" updates="None"/>\u000a        <Param name="startType" val="time (s)" valType="str" updates="None"/>\u000a        <Param name="ori" val="0" valType="code" updates="constant"/>\u000a        <Param name="stopType" val="duration (s)" valType="str" updates="None"/>\u000a        <Param name="startVal" val="0.3" valType="code" updates="None"/>\u000a        <Param name="font" val="Arial" valType="str" updates="constant"/>\u000a        <Param name="letterHeight" val="0.15" valType="code" updates="constant"/>\u000a      </TextComponent>\u000a      <KeyboardComponent name="Response_5">\u000a        <Param name="correctAns" val="$corr(thisTrial_5.key, side, thisTrial_5.condition)" valType="str" updates="constant"/>\u000a        <Param name="storeCorrect" val="True" valType="bool" updates="constant"/>\u000a        <Param name="name" val="Response_5" valType="code" updates="None"/>\u000a        <Param name="stopVal" val="Wrong_5.status==STARTED" valType="code" updates="constant"/>\u000a        <Param name="durationEstim" val="" valType="code" updates="None"/>\u000a        <Param name="forceEndRoutine" val="False" valType="bool" updates="constant"/>\u000a        <Param name="startEstim" val="" valType="code" updates="None"/>\u000a        <Param name="discard previous" val="False" valType="bool" updates="constant"/>\u000a        <Param name="startType" val="time (s)" valType="str" updates="None"/>\u000a        <Param name="allowedKeys" val="'e','i'" valType="code" updates="constant"/>\u000a        <Param name="stopType" val="condition" valType="str" updates="None"/>\u000a        <Param name="startVal" val="0.3" valType="code" updates="None"/>\u000a        <Param name="store" val="last key" valType="str" updates="constant"/>\u000a      </KeyboardComponent>\u000a      <CodeComponent name="code_5">\u000a        <Param name="Begin Experiment" val="" valType="extendedCode" updates="constant"/>\u000a        <Param name="name" val="code_5" valType="code" updates="None"/>\u000a        <Param name="Each Frame" val="if Response_5.status==STARTED:&#10;    if len(theseKeys)&gt;0:&#10;        if Response_5.corr ==1:&#10;            continueRoutine=False&#10;        else:&#10;            Wrong_5.setAutoDraw(True)&#10;            Wrong_5.status=STARTED" valType="extendedCode" updates="constant"/>\u000a        <Param name="Begin Routine" val="" valType="extendedCode" updates="constant"/>\u000a        <Param name="End Routine" val="" valType="extendedCode" updates="constant"/>\u000a        <Param name="End Experiment" val="" valType="extendedCode" updates="constant"/>\u000a      </CodeComponent>\u000a      <KeyboardComponent name="Keys_5">\u000a        <Param name="correctAns" val="$corr(thisTrial_5.key, side, thisTrial_5.condition)" valType="str" updates="constant"/>\u000a        <Param name="storeCorrect" val="True" valType="bool" updates="constant"/>\u000a        <Param name="name" val="Keys_5" valType="code" updates="None"/>\u000a        <Param name="stopVal" val="" valType="code" updates="constant"/>\u000a        <Param name="durationEstim" val="" valType="code" updates="None"/>\u000a        <Param name="forceEndRoutine" val="True" valType="bool" updates="constant"/>\u000a        <Param name="startEstim" val="" valType="code" updates="None"/>\u000a        <Param name="discard previous" val="True" valType="bool" updates="constant"/>\u000a        <Param name="startType" val="condition" valType="str" updates="None"/>\u000a        <Param name="allowedKeys" val="'e','i'" valType="code" updates="constant"/>\u000a        <Param name="stopType" val="duration (s)" valType="str" updates="None"/>\u000a        <Param name="startVal" val="Wrong_5.status==STARTED" valType="code" updates="None"/>\u000a        <Param name="store" val="first key" valType="str" updates="constant"/>\u000a      </KeyboardComponent>\u000a      <TextComponent name="Wrong_5">\u000a        <Param name="opacity" val="1" valType="code" updates="constant"/>\u000a        <Param name="colorSpace" val="rgb" valType="str" updates="constant"/>\u000a        <Param name="name" val="Wrong_5" valType="code" updates="None"/>\u000a        <Param name="wrapWidth" val="" valType="code" updates="constant"/>\u000a        <Param name="color" val="red" valType="str" updates="constant"/>\u000a        <Param name="text" val="X" valType="str" updates="constant"/>\u000a        <Param name="stopVal" val="" valType="code" updates="constant"/>\u000a        <Param name="durationEstim" val="" valType="code" updates="None"/>\u000a        <Param name="pos" val="[0, -.3]" valType="code" updates="constant"/>\u000a        <Param name="flip" val="" valType="str" updates="constant"/>\u000a        <Param name="startEstim" val="" valType="code" updates="None"/>\u000a        <Param name="units" val="from exp settings" valType="str" updates="None"/>\u000a        <Param name="startType" val="condition" valType="str" updates="None"/>\u000a        <Param name="ori" val="0" valType="code" updates="constant"/>\u000a        <Param name="stopType" val="duration (s)" valType="str" updates="None"/>\u000a        <Param name="startVal" val="len(theseKeys)&gt;5" valType="code" updates="None"/>\u000a        <Param name="font" val="Arial" valType="str" updates="constant"/>\u000a        <Param name="letterHeight" val="0.1" valType="code" updates="constant"/>\u000a      </TextComponent>\u000a    </Routine>\u000a    <Routine name="Block_4">\u000a      <TextComponent name="Creative_4">\u000a        <Param name="opacity" val="1" valType="code" updates="constant"/>\u000a        <Param name="colorSpace" val="rgb" valType="str" updates="constant"/>\u000a        <Param name="name" val="Creative_4" valType="code" updates="None"/>\u000a        <Param name="wrapWidth" val="" valType="code" updates="constant"/>\u000a        <Param name="color" val="skyblue" valType="str" updates="constant"/>\u000a        <Param name="text" val="Creative" valType="str" updates="constant"/>\u000a        <Param name="stopVal" val="" valType="code" updates="constant"/>\u000a        <Param name="durationEstim" val="" valType="code" updates="None"/>\u000a        <Param name="pos" val="[-.8*side, 0.8]" valType="code" updates="constant"/>\u000a        <Param name="flip" val="" valType="str" updates="constant"/>\u000a        <Param name="startEstim" val="" valType="code" updates="None"/>\u000a        <Param name="units" val="from exp settings" valType="str" updates="None"/>\u000a        <Param name="startType" val="time (s)" valType="str" updates="None"/>\u000a        <Param name="ori" val="0" valType="code" updates="constant"/>\u000a        <Param name="stopType" val="duration (s)" valType="str" updates="None"/>\u000a        <Param name="startVal" val="0.0" valType="code" updates="None"/>\u000a        <Param name="font" val="Arial" valType="str" updates="constant"/>\u000a        <Param name="letterHeight" val="0.15" valType="code" updates="constant"/>\u000a      </TextComponent>\u000a      <TextComponent name="or_4">\u000a        <Param name="opacity" val="1" valType="code" updates="constant"/>\u000a        <Param name="colorSpace" val="rgb" valType="str" updates="constant"/>\u000a        <Param name="name" val="or_4" valType="code" updates="None"/>\u000a        <Param name="wrapWidth" val="" valType="code" updates="constant"/>\u000a        <Param name="color" val="gray" valType="str" updates="constant"/>\u000a        <Param name="text" val="or" valType="str" updates="constant"/>\u000a        <Param name="stopVal" val="" valType="code" updates="constant"/>\u000a        <Param name="durationEstim" val="" valType="code" updates="None"/>\u000a        <Param name="pos" val="[-.8, 0.7]" valType="code" updates="constant"/>\u000a        <Param name="flip" val="" valType="str" updates="constant"/>\u000a        <Param name="startEstim" val="" valType="code" updates="None"/>\u000a        <Param name="units" val="from exp settings" valType="str" updates="None"/>\u000a        <Param name="startType" val="time (s)" valType="str" updates="None"/>\u000a        <Param name="ori" val="0" valType="code" updates="constant"/>\u000a        <Param name="stopType" val="duration (s)" valType="str" updates="None"/>\u000a        <Param name="startVal" val="0.0" valType="code" updates="None"/>\u000a        <Param name="font" val="Arial" valType="str" updates="constant"/>\u000a        <Param name="letterHeight" val="0.1" valType="code" updates="constant"/>\u000a      </TextComponent>\u000a      <TextComponent name="Bad_4">\u000a        <Param name="opacity" val="1" valType="code" updates="constant"/>\u000a        <Param name="colorSpace" val="rgb" valType="str" updates="constant"/>\u000a        <Param name="name" val="Bad_4" valType="code" updates="None"/>\u000a        <Param name="wrapWidth" val="" valType="code" updates="constant"/>\u000a        <Param name="color" val="limegreen" valType="str" updates="constant"/>\u000a        <Param name="text" val="Bad" valType="str" updates="constant"/>\u000a        <Param name="stopVal" val="" valType="code" updates="constant"/>\u000a        <Param name="durationEstim" val="" valType="code" updates="None"/>\u000a        <Param name="pos" val="[-.8, 0.6]" valType="code" updates="constant"/>\u000a        <Param name="flip" val="" valType="str" updates="constant"/>\u000a        <Param name="startEstim" val="" valType="code" updates="None"/>\u000a        <Param name="units" val="from exp settings" valType="str" updates="None"/>\u000a        <Param name="startType" val="time (s)" valType="str" updates="None"/>\u000a        <Param name="ori" val="0" valType="code" updates="constant"/>\u000a        <Param name="stopType" val="duration (s)" valType="str" updates="None"/>\u000a        <Param name="startVal" val="0.0" valType="code" updates="None"/>\u000a        <Param name="font" val="Arial" valType="str" updates="constant"/>\u000a        <Param name="letterHeight" val="0.15" valType="code" updates="constant"/>\u000a      </TextComponent>\u000a      <TextComponent name="Practical_4">\u000a        <Param name="opacity" val="1" valType="code" updates="constant"/>\u000a        <Param name="colorSpace" val="rgb" valType="str" updates="constant"/>\u000a        <Param name="name" val="Practical_4" valType="code" updates="None"/>\u000a        <Param name="wrapWidth" val="" valType="code" updates="constant"/>\u000a        <Param name="color" val="skyblue" valType="str" updates="constant"/>\u000a        <Param name="text" val="Practical" valType="str" updates="constant"/>\u000a        <Param name="stopVal" val="" valType="code" updates="constant"/>\u000a        <Param name="durationEstim" val="" valType="code" updates="None"/>\u000a        <Param name="pos" val="[.8*side, 0.8]" valType="code" updates="constant"/>\u000a        <Param name="flip" val="" valType="str" updates="constant"/>\u000a        <Param name="startEstim" val="" valType="code" updates="None"/>\u000a        <Param name="units" val="from exp settings" valType="str" updates="None"/>\u000a        <Param name="startType" val="time (s)" valType="str" updates="None"/>\u000a        <Param name="ori" val="0" valType="code" updates="constant"/>\u000a        <Param name="stopType" val="duration (s)" valType="str" updates="None"/>\u000a        <Param name="startVal" val="0.0" valType="code" updates="None"/>\u000a        <Param name="font" val="Arial" valType="str" updates="constant"/>\u000a        <Param name="letterHeight" val="0.15" valType="code" updates="constant"/>\u000a      </TextComponent>\u000a      <TextComponent name="or_2_4">\u000a        <Param name="opacity" val="1" valType="code" updates="constant"/>\u000a        <Param name="colorSpace" val="rgb" valType="str" updates="constant"/>\u000a        <Param name="name" val="or_2_4" valType="code" updates="None"/>\u000a        <Param name="wrapWidth" val="" valType="code" updates="constant"/>\u000a        <Param name="color" val="gray" valType="str" updates="constant"/>\u000a        <Param name="text" val="or" valType="str" updates="constant"/>\u000a        <Param name="stopVal" val="" valType="code" updates="constant"/>\u000a        <Param name="durationEstim" val="" valType="code" updates="None"/>\u000a        <Param name="pos" val="[0.8,0.7]" valType="code" updates="constant"/>\u000a        <Param name="flip" val="" valType="str" updates="constant"/>\u000a        <Param name="startEstim" val="" valType="code" updates="None"/>\u000a        <Param name="units" val="from exp settings" valType="str" updates="None"/>\u000a        <Param name="startType" val="time (s)" valType="str" updates="None"/>\u000a        <Param name="ori" val="0" valType="code" updates="constant"/>\u000a        <Param name="stopType" val="duration (s)" valType="str" updates="None"/>\u000a        <Param name="startVal" val="0.0" valType="code" updates="None"/>\u000a        <Param name="font" val="Arial" valType="str" updates="constant"/>\u000a        <Param name="letterHeight" val="0.1" valType="code" updates="constant"/>\u000a      </TextComponent>\u000a      <TextComponent name="Good_4">\u000a        <Param name="opacity" val="1" valType="code" updates="constant"/>\u000a        <Param name="colorSpace" val="rgb" valType="str" updates="constant"/>\u000a        <Param name="name" val="Good_4" valType="code" updates="None"/>\u000a        <Param name="wrapWidth" val="" valType="code" updates="constant"/>\u000a        <Param name="color" val="limegreen" valType="str" updates="constant"/>\u000a        <Param name="text" val="Good" valType="str" updates="constant"/>\u000a        <Param name="stopVal" val="" valType="code" updates="constant"/>\u000a        <Param name="durationEstim" val="" valType="code" updates="None"/>\u000a        <Param name="pos" val="[0.8,0.6]" valType="code" updates="constant"/>\u000a        <Param name="flip" val="" valType="str" updates="constant"/>\u000a        <Param name="startEstim" val="" valType="code" updates="None"/>\u000a        <Param name="units" val="from exp settings" valType="str" updates="None"/>\u000a        <Param name="startType" val="time (s)" valType="str" updates="None"/>\u000a        <Param name="ori" val="0" valType="code" updates="constant"/>\u000a        <Param name="stopType" val="duration (s)" valType="str" updates="None"/>\u000a        <Param name="startVal" val="0.0" valType="code" updates="None"/>\u000a        <Param name="font" val="Arial" valType="str" updates="constant"/>\u000a        <Param name="letterHeight" val="0.15" valType="code" updates="constant"/>\u000a      </TextComponent>\u000a      <TextComponent name="Word_4">\u000a        <Param name="opacity" val="1" valType="code" updates="constant"/>\u000a        <Param name="colorSpace" val="rgb" valType="str" updates="constant"/>\u000a        <Param name="name" val="Word_4" valType="code" updates="None"/>\u000a        <Param name="wrapWidth" val="" valType="code" updates="constant"/>\u000a        <Param name="color" val="$color" valType="str" updates="set every repeat"/>\u000a        <Param name="text" val="$word" valType="str" updates="set every repeat"/>\u000a        <Param name="stopVal" val="" valType="code" updates="constant"/>\u000a        <Param name="durationEstim" val="" valType="code" updates="None"/>\u000a        <Param name="pos" val="[0, 0]" valType="code" updates="constant"/>\u000a        <Param name="flip" val="" valType="str" updates="constant"/>\u000a        <Param name="startEstim" val="" valType="code" updates="None"/>\u000a        <Param name="units" val="from exp settings" valType="str" updates="None"/>\u000a        <Param name="startType" val="time (s)" valType="str" updates="None"/>\u000a        <Param name="ori" val="0" valType="code" updates="constant"/>\u000a        <Param name="stopType" val="duration (s)" valType="str" updates="None"/>\u000a        <Param name="startVal" val="0.3" valType="code" updates="None"/>\u000a        <Param name="font" val="Arial" valType="str" updates="constant"/>\u000a        <Param name="letterHeight" val="0.15" valType="code" updates="constant"/>\u000a      </TextComponent>\u000a      <KeyboardComponent name="Response_4">\u000a        <Param name="correctAns" val="$corr(key, side, condition)" valType="str" updates="constant"/>\u000a        <Param name="storeCorrect" val="True" valType="bool" updates="constant"/>\u000a        <Param name="name" val="Response_4" valType="code" updates="None"/>\u000a        <Param name="stopVal" val="Wrong_4.status==STARTED" valType="code" updates="constant"/>\u000a        <Param name="durationEstim" val="" valType="code" updates="None"/>\u000a        <Param name="forceEndRoutine" val="False" valType="bool" updates="constant"/>\u000a        <Param name="startEstim" val="" valType="code" updates="None"/>\u000a        <Param name="discard previous" val="False" valType="bool" updates="constant"/>\u000a        <Param name="startType" val="time (s)" valType="str" updates="None"/>\u000a        <Param name="allowedKeys" val="'e','i'" valType="code" updates="constant"/>\u000a        <Param name="stopType" val="condition" valType="str" updates="None"/>\u000a        <Param name="startVal" val="0.3" valType="code" updates="None"/>\u000a        <Param name="store" val="first key" valType="str" updates="constant"/>\u000a      </KeyboardComponent>\u000a      <CodeComponent name="code_4">\u000a        <Param name="Begin Experiment" val="" valType="extendedCode" updates="constant"/>\u000a        <Param name="name" val="code_4" valType="code" updates="None"/>\u000a        <Param name="Each Frame" val="if Response_4.status == STARTED:&#10;    if len(theseKeys) &gt; 0:&#10;        if Response_4.corr ==1:&#10;            continueRoutine = False&#10;        else:&#10;            Wrong_4.setAutoDraw(True)&#10;            Wrong_4.status = STARTED" valType="extendedCode" updates="constant"/>\u000a        <Param name="Begin Routine" val="" valType="extendedCode" updates="constant"/>\u000a        <Param name="End Routine" val="" valType="extendedCode" updates="constant"/>\u000a        <Param name="End Experiment" val="" valType="extendedCode" updates="constant"/>\u000a      </CodeComponent>\u000a      <KeyboardComponent name="Keys_4">\u000a        <Param name="correctAns" val="$corr(key, side, condition)" valType="str" updates="constant"/>\u000a        <Param name="storeCorrect" val="True" valType="bool" updates="constant"/>\u000a        <Param name="name" val="Keys_4" valType="code" updates="None"/>\u000a        <Param name="stopVal" val="" valType="code" updates="constant"/>\u000a        <Param name="durationEstim" val="" valType="code" updates="None"/>\u000a        <Param name="forceEndRoutine" val="True" valType="bool" updates="constant"/>\u000a        <Param name="startEstim" val="" valType="code" updates="None"/>\u000a        <Param name="discard previous" val="True" valType="bool" updates="constant"/>\u000a        <Param name="startType" val="condition" valType="str" updates="None"/>\u000a        <Param name="allowedKeys" val="'e','i'" valType="code" updates="constant"/>\u000a        <Param name="stopType" val="duration (s)" valType="str" updates="None"/>\u000a        <Param name="startVal" val="Wrong_4.status==STARTED" valType="code" updates="None"/>\u000a        <Param name="store" val="first key" valType="str" updates="constant"/>\u000a      </KeyboardComponent>\u000a      <TextComponent name="Wrong_4">\u000a        <Param name="opacity" val="1" valType="code" updates="constant"/>\u000a        <Param name="colorSpace" val="rgb" valType="str" updates="constant"/>\u000a        <Param name="name" val="Wrong_4" valType="code" updates="None"/>\u000a        <Param name="wrapWidth" val="" valType="code" updates="constant"/>\u000a        <Param name="color" val="red" valType="str" updates="constant"/>\u000a        <Param name="text" val="X" valType="str" updates="constant"/>\u000a        <Param name="stopVal" val="" valType="code" updates="constant"/>\u000a        <Param name="durationEstim" val="" valType="code" updates="None"/>\u000a        <Param name="pos" val="[0, -.3]" valType="code" updates="constant"/>\u000a        <Param name="flip" val="" valType="str" updates="constant"/>\u000a        <Param name="startEstim" val="" valType="code" updates="None"/>\u000a        <Param name="units" val="from exp settings" valType="str" updates="None"/>\u000a        <Param name="startType" val="condition" valType="str" updates="None"/>\u000a        <Param name="ori" val="0" valType="code" updates="constant"/>\u000a        <Param name="stopType" val="duration (s)" valType="str" updates="None"/>\u000a        <Param name="startVal" val="len(theseKeys)&gt;5" valType="code" updates="None"/>\u000a        <Param name="font" val="Arial" valType="str" updates="constant"/>\u000a        <Param name="letterHeight" val="0.1" valType="code" updates="constant"/>\u000a      </TextComponent>\u000a    </Routine>\u000a    <Routine name="Block_7">\u000a      <TextComponent name="Practical_7">\u000a        <Param name="opacity" val="1" valType="code" updates="constant"/>\u000a        <Param name="colorSpace" val="rgb" valType="str" updates="constant"/>\u000a        <Param name="name" val="Practical_7" valType="code" updates="None"/>\u000a        <Param name="wrapWidth" val="" valType="code" updates="constant"/>\u000a        <Param name="color" val="skyblue" valType="str" updates="constant"/>\u000a        <Param name="text" val="Practical" valType="str" updates="constant"/>\u000a        <Param name="stopVal" val="" valType="code" updates="constant"/>\u000a        <Param name="durationEstim" val="" valType="code" updates="None"/>\u000a        <Param name="pos" val="[-0.8*side,0.8]" valType="code" updates="constant"/>\u000a        <Param name="flip" val="" valType="str" updates="constant"/>\u000a        <Param name="startEstim" val="" valType="code" updates="None"/>\u000a        <Param name="units" val="from exp settings" valType="str" updates="None"/>\u000a        <Param name="startType" val="time (s)" valType="str" updates="None"/>\u000a        <Param name="ori" val="0" valType="code" updates="constant"/>\u000a        <Param name="stopType" val="duration (s)" valType="str" updates="None"/>\u000a        <Param name="startVal" val="0.0" valType="code" updates="None"/>\u000a        <Param name="font" val="Arial" valType="str" updates="constant"/>\u000a        <Param name="letterHeight" val="0.15" valType="code" updates="constant"/>\u000a      </TextComponent>\u000a      <TextComponent name="or_7">\u000a        <Param name="opacity" val="1" valType="code" updates="constant"/>\u000a        <Param name="colorSpace" val="rgb" valType="str" updates="constant"/>\u000a        <Param name="name" val="or_7" valType="code" updates="None"/>\u000a        <Param name="wrapWidth" val="" valType="code" updates="constant"/>\u000a        <Param name="color" val="gray" valType="str" updates="constant"/>\u000a        <Param name="text" val="or" valType="str" updates="constant"/>\u000a        <Param name="stopVal" val="" valType="code" updates="constant"/>\u000a        <Param name="durationEstim" val="" valType="code" updates="None"/>\u000a        <Param name="pos" val="[-0.8,0.7]" valType="code" updates="constant"/>\u000a        <Param name="flip" val="" valType="str" updates="constant"/>\u000a        <Param name="startEstim" val="" valType="code" updates="None"/>\u000a        <Param name="units" val="from exp settings" valType="str" updates="None"/>\u000a        <Param name="startType" val="time (s)" valType="str" updates="None"/>\u000a        <Param name="ori" val="0" valType="code" updates="constant"/>\u000a        <Param name="stopType" val="duration (s)" valType="str" updates="None"/>\u000a        <Param name="startVal" val="0.0" valType="code" updates="None"/>\u000a        <Param name="font" val="Arial" valType="str" updates="constant"/>\u000a        <Param name="letterHeight" val="0.1" valType="code" updates="constant"/>\u000a      </TextComponent>\u000a      <TextComponent name="Bad_7">\u000a        <Param name="opacity" val="1" valType="code" updates="constant"/>\u000a        <Param name="colorSpace" val="rgb" valType="str" updates="constant"/>\u000a        <Param name="name" val="Bad_7" valType="code" updates="None"/>\u000a        <Param name="wrapWidth" val="" valType="code" updates="constant"/>\u000a        <Param name="color" val="limegreen" valType="str" updates="constant"/>\u000a        <Param name="text" val="Bad" valType="str" updates="constant"/>\u000a        <Param name="stopVal" val="" valType="code" updates="constant"/>\u000a        <Param name="durationEstim" val="" valType="code" updates="None"/>\u000a        <Param name="pos" val="[-0.8,0.6]" valType="code" updates="constant"/>\u000a        <Param name="flip" val="" valType="str" updates="constant"/>\u000a        <Param name="startEstim" val="" valType="code" updates="None"/>\u000a        <Param name="units" val="from exp settings" valType="str" updates="None"/>\u000a        <Param name="startType" val="time (s)" valType="str" updates="None"/>\u000a        <Param name="ori" val="0" valType="code" updates="constant"/>\u000a        <Param name="stopType" val="duration (s)" valType="str" updates="None"/>\u000a        <Param name="startVal" val="0.0" valType="code" updates="None"/>\u000a        <Param name="font" val="Arial" valType="str" updates="constant"/>\u000a        <Param name="letterHeight" val="0.15" valType="code" updates="constant"/>\u000a      </TextComponent>\u000a      <TextComponent name="Creative_7">\u000a        <Param name="opacity" val="1" valType="code" updates="constant"/>\u000a        <Param name="colorSpace" val="rgb" valType="str" updates="constant"/>\u000a        <Param name="name" val="Creative_7" valType="code" updates="None"/>\u000a        <Param name="wrapWidth" val="" valType="code" updates="constant"/>\u000a        <Param name="color" val="skyblue" valType="str" updates="constant"/>\u000a        <Param name="text" val="Creative" valType="str" updates="constant"/>\u000a        <Param name="stopVal" val="" valType="code" updates="constant"/>\u000a        <Param name="durationEstim" val="" valType="code" updates="None"/>\u000a        <Param name="pos" val="[0.8*side,0.8]" valType="code" updates="constant"/>\u000a        <Param name="flip" val="" valType="str" updates="constant"/>\u000a        <Param name="startEstim" val="" valType="code" updates="None"/>\u000a        <Param name="units" val="from exp settings" valType="str" updates="None"/>\u000a        <Param name="startType" val="time (s)" valType="str" updates="None"/>\u000a        <Param name="ori" val="0" valType="code" updates="constant"/>\u000a        <Param name="stopType" val="duration (s)" valType="str" updates="None"/>\u000a        <Param name="startVal" val="0.0" valType="code" updates="None"/>\u000a        <Param name="font" val="Arial" valType="str" updates="constant"/>\u000a        <Param name="letterHeight" val="0.15" valType="code" updates="constant"/>\u000a      </TextComponent>\u000a      <TextComponent name="or_2_7">\u000a        <Param name="opacity" val="1" valType="code" updates="constant"/>\u000a        <Param name="colorSpace" val="rgb" valType="str" updates="constant"/>\u000a        <Param name="name" val="or_2_7" valType="code" updates="None"/>\u000a        <Param name="wrapWidth" val="" valType="code" updates="constant"/>\u000a        <Param name="color" val="gray" valType="str" updates="constant"/>\u000a        <Param name="text" val="or" valType="str" updates="constant"/>\u000a        <Param name="stopVal" val="" valType="code" updates="constant"/>\u000a        <Param name="durationEstim" val="" valType="code" updates="None"/>\u000a        <Param name="pos" val="[0.8,0.7]" valType="code" updates="constant"/>\u000a        <Param name="flip" val="" valType="str" updates="constant"/>\u000a        <Param name="startEstim" val="" valType="code" updates="None"/>\u000a        <Param name="units" val="from exp settings" valType="str" updates="None"/>\u000a        <Param name="startType" val="time (s)" valType="str" updates="None"/>\u000a        <Param name="ori" val="0" valType="code" updates="constant"/>\u000a        <Param name="stopType" val="duration (s)" valType="str" updates="None"/>\u000a        <Param name="startVal" val="0.0" valType="code" updates="None"/>\u000a        <Param name="font" val="Arial" valType="str" updates="constant"/>\u000a        <Param name="letterHeight" val="0.1" valType="code" updates="constant"/>\u000a      </TextComponent>\u000a      <TextComponent name="Good_7">\u000a        <Param name="opacity" val="1" valType="code" updates="constant"/>\u000a        <Param name="colorSpace" val="rgb" valType="str" updates="constant"/>\u000a        <Param name="name" val="Good_7" valType="code" updates="None"/>\u000a        <Param name="wrapWidth" val="" valType="code" updates="constant"/>\u000a        <Param name="color" val="limegreen" valType="str" updates="constant"/>\u000a        <Param name="text" val="Good" valType="str" updates="constant"/>\u000a        <Param name="stopVal" val="" valType="code" updates="constant"/>\u000a        <Param name="durationEstim" val="" valType="code" updates="None"/>\u000a        <Param name="pos" val="[0.8,0.6]" valType="code" updates="constant"/>\u000a        <Param name="flip" val="" valType="str" updates="constant"/>\u000a        <Param name="startEstim" val="" valType="code" updates="None"/>\u000a        <Param name="units" val="from exp settings" valType="str" updates="None"/>\u000a        <Param name="startType" val="time (s)" valType="str" updates="None"/>\u000a        <Param name="ori" val="0" valType="code" updates="constant"/>\u000a        <Param name="stopType" val="duration (s)" valType="str" updates="None"/>\u000a        <Param name="startVal" val="0.0" valType="code" updates="None"/>\u000a        <Param name="font" val="Arial" valType="str" updates="constant"/>\u000a        <Param name="letterHeight" val="0.15" valType="code" updates="constant"/>\u000a      </TextComponent>\u000a      <TextComponent name="Word_7">\u000a        <Param name="opacity" val="1" valType="code" updates="constant"/>\u000a        <Param name="colorSpace" val="rgb" valType="str" updates="constant"/>\u000a        <Param name="name" val="Word_7" valType="code" updates="None"/>\u000a        <Param name="wrapWidth" val="" valType="code" updates="constant"/>\u000a        <Param name="color" val="$color" valType="str" updates="set every repeat"/>\u000a        <Param name="text" val="$word" valType="str" updates="set every repeat"/>\u000a        <Param name="stopVal" val="" valType="code" updates="constant"/>\u000a        <Param name="durationEstim" val="" valType="code" updates="None"/>\u000a        <Param name="pos" val="[0, 0]" valType="code" updates="constant"/>\u000a        <Param name="flip" val="" valType="str" updates="constant"/>\u000a        <Param name="startEstim" val="" valType="code" updates="None"/>\u000a        <Param name="units" val="from exp settings" valType="str" updates="None"/>\u000a        <Param name="startType" val="time (s)" valType="str" updates="None"/>\u000a        <Param name="ori" val="0" valType="code" updates="constant"/>\u000a        <Param name="stopType" val="duration (s)" valType="str" updates="None"/>\u000a        <Param name="startVal" val="0.3" valType="code" updates="None"/>\u000a        <Param name="font" val="Arial" valType="str" updates="constant"/>\u000a        <Param name="letterHeight" val="0.15" valType="code" updates="constant"/>\u000a      </TextComponent>\u000a      <KeyboardComponent name="Response_7">\u000a        <Param name="correctAns" val="$corr(key, side, condition)" valType="str" updates="constant"/>\u000a        <Param name="storeCorrect" val="True" valType="bool" updates="constant"/>\u000a        <Param name="name" val="Response_7" valType="code" updates="None"/>\u000a        <Param name="stopVal" val="Wrong_7.status==STARTED" valType="code" updates="constant"/>\u000a        <Param name="durationEstim" val="" valType="code" updates="None"/>\u000a        <Param name="forceEndRoutine" val="False" valType="bool" updates="constant"/>\u000a        <Param name="startEstim" val="" valType="code" updates="None"/>\u000a        <Param name="discard previous" val="False" valType="bool" updates="constant"/>\u000a        <Param name="startType" val="time (s)" valType="str" updates="None"/>\u000a        <Param name="allowedKeys" val="'e','i'" valType="code" updates="constant"/>\u000a        <Param name="stopType" val="condition" valType="str" updates="None"/>\u000a        <Param name="startVal" val="0.3" valType="code" updates="None"/>\u000a        <Param name="store" val="first key" valType="str" updates="constant"/>\u000a      </KeyboardComponent>\u000a      <CodeComponent name="code_7">\u000a        <Param name="Begin Experiment" val="" valType="extendedCode" updates="constant"/>\u000a        <Param name="name" val="code_7" valType="code" updates="None"/>\u000a        <Param name="Each Frame" val="if Response_7.status == STARTED:&#10;    if len(theseKeys) &gt; 0:&#10;        if Response_7.corr == 1:&#10;            continueRoutine=False&#10;        else:&#10;            Wrong_7.setAutoDraw(True)&#10;            Wrong_7.status=STARTED" valType="extendedCode" updates="constant"/>\u000a        <Param name="Begin Routine" val="" valType="extendedCode" updates="constant"/>\u000a        <Param name="End Routine" val="" valType="extendedCode" updates="constant"/>\u000a        <Param name="End Experiment" val="" valType="extendedCode" updates="constant"/>\u000a      </CodeComponent>\u000a      <KeyboardComponent name="Keys_7">\u000a        <Param name="correctAns" val="$corr(key, side, condition)" valType="str" updates="constant"/>\u000a        <Param name="storeCorrect" val="True" valType="bool" updates="constant"/>\u000a        <Param name="name" val="Keys_7" valType="code" updates="None"/>\u000a        <Param name="stopVal" val="" valType="code" updates="constant"/>\u000a        <Param name="durationEstim" val="" valType="code" updates="None"/>\u000a        <Param name="forceEndRoutine" val="True" valType="bool" updates="constant"/>\u000a        <Param name="startEstim" val="" valType="code" updates="None"/>\u000a        <Param name="discard previous" val="True" valType="bool" updates="constant"/>\u000a        <Param name="startType" val="condition" valType="str" updates="None"/>\u000a        <Param name="allowedKeys" val="'e','i'" valType="code" updates="constant"/>\u000a        <Param name="stopType" val="duration (s)" valType="str" updates="None"/>\u000a        <Param name="startVal" val="Wrong_7.status==STARTED" valType="code" updates="None"/>\u000a        <Param name="store" val="first key" valType="str" updates="constant"/>\u000a      </KeyboardComponent>\u000a      <TextComponent name="Wrong_7">\u000a        <Param name="opacity" val="1" valType="code" updates="constant"/>\u000a        <Param name="colorSpace" val="rgb" valType="str" updates="constant"/>\u000a        <Param name="name" val="Wrong_7" valType="code" updates="None"/>\u000a        <Param name="wrapWidth" val="" valType="code" updates="constant"/>\u000a        <Param name="color" val="red" valType="str" updates="constant"/>\u000a        <Param name="text" val="X" valType="str" updates="constant"/>\u000a        <Param name="stopVal" val="" valType="code" updates="constant"/>\u000a        <Param name="durationEstim" val="" valType="code" updates="None"/>\u000a        <Param name="pos" val="[0, -.3]" valType="code" updates="constant"/>\u000a        <Param name="flip" val="" valType="str" updates="constant"/>\u000a        <Param name="startEstim" val="" valType="code" updates="None"/>\u000a        <Param name="units" val="from exp settings" valType="str" updates="None"/>\u000a        <Param name="startType" val="condition" valType="str" updates="None"/>\u000a        <Param name="ori" val="0" valType="code" updates="constant"/>\u000a        <Param name="stopType" val="duration (s)" valType="str" updates="None"/>\u000a        <Param name="startVal" val="len(theseKeys)&gt;5" valType="code" updates="None"/>\u000a        <Param name="font" val="Arial" valType="str" updates="constant"/>\u000a        <Param name="letterHeight" val="0.1" valType="code" updates="constant"/>\u000a      </TextComponent>\u000a    </Routine>\u000a    <Routine name="Instr_7">\u000a      <TextComponent name="Instr7">\u000a        <Param name="opacity" val="1" valType="code" updates="constant"/>\u000a        <Param name="colorSpace" val="rgb" valType="str" updates="constant"/>\u000a        <Param name="name" val="Instr7" valType="code" updates="None"/>\u000a        <Param name="wrapWidth" val="1.2" valType="code" updates="constant"/>\u000a        <Param name="color" val="white" valType="str" updates="constant"/>\u000a        <Param name="text" val="Sort the same four categories again. The same rules still apply.&#13;&#10;&#13;&#10;Press the spacebar to begin the next set of trials." valType="str" updates="constant"/>\u000a        <Param name="stopVal" val="" valType="code" updates="constant"/>\u000a        <Param name="durationEstim" val="" valType="code" updates="None"/>\u000a        <Param name="pos" val="[0, 0]" valType="code" updates="constant"/>\u000a        <Param name="flip" val="" valType="str" updates="constant"/>\u000a        <Param name="startEstim" val="" valType="code" updates="None"/>\u000a        <Param name="units" val="from exp settings" valType="str" updates="None"/>\u000a        <Param name="startType" val="time (s)" valType="str" updates="None"/>\u000a        <Param name="ori" val="0" valType="code" updates="constant"/>\u000a        <Param name="stopType" val="duration (s)" valType="str" updates="None"/>\u000a        <Param name="startVal" val="0.0" valType="code" updates="None"/>\u000a        <Param name="font" val="Arial" valType="str" updates="constant"/>\u000a        <Param name="letterHeight" val="0.08" valType="code" updates="constant"/>\u000a      </TextComponent>\u000a      <KeyboardComponent name="Instr_key_7">\u000a        <Param name="correctAns" val="" valType="str" updates="constant"/>\u000a        <Param name="storeCorrect" val="False" valType="bool" updates="constant"/>\u000a        <Param name="name" val="Instr_key_7" valType="code" updates="None"/>\u000a        <Param name="stopVal" val="" valType="code" updates="constant"/>\u000a        <Param name="durationEstim" val="" valType="code" updates="None"/>\u000a        <Param name="forceEndRoutine" val="True" valType="bool" updates="constant"/>\u000a        <Param name="startEstim" val="" valType="code" updates="None"/>\u000a        <Param name="discard previous" val="True" valType="bool" updates="constant"/>\u000a        <Param name="startType" val="time (s)" valType="str" updates="None"/>\u000a        <Param name="allowedKeys" val="'space'" valType="code" updates="constant"/>\u000a        <Param name="stopType" val="duration (s)" valType="str" updates="None"/>\u000a        <Param name="startVal" val="0.0" valType="code" updates="None"/>\u000a        <Param name="store" val="last key" valType="str" updates="constant"/>\u000a      </KeyboardComponent>\u000a      <TextComponent name="Instr_Prac_7">\u000a        <Param name="opacity" val="1" valType="code" updates="constant"/>\u000a        <Param name="colorSpace" val="rgb" valType="str" updates="constant"/>\u000a        <Param name="name" val="Instr_Prac_7" valType="code" updates="None"/>\u000a        <Param name="wrapWidth" val="" valType="code" updates="constant"/>\u000a        <Param name="color" val="skyblue" valType="str" updates="constant"/>\u000a        <Param name="text" val="Practical" valType="str" updates="constant"/>\u000a        <Param name="stopVal" val="" valType="code" updates="constant"/>\u000a        <Param name="durationEstim" val="" valType="code" updates="None"/>\u000a        <Param name="pos" val="[-0.8*expInfo['side'],0.8]" valType="code" updates="constant"/>\u000a        <Param name="flip" val="" valType="str" updates="constant"/>\u000a        <Param name="startEstim" val="" valType="code" updates="None"/>\u000a        <Param name="units" val="from exp settings" valType="str" updates="None"/>\u000a        <Param name="startType" val="time (s)" valType="str" updates="None"/>\u000a        <Param name="ori" val="0" valType="code" updates="constant"/>\u000a        <Param name="stopType" val="duration (s)" valType="str" updates="None"/>\u000a        <Param name="startVal" val="0.0" valType="code" updates="None"/>\u000a        <Param name="font" val="Arial" valType="str" updates="constant"/>\u000a        <Param name="letterHeight" val="0.15" valType="code" updates="constant"/>\u000a      </TextComponent>\u000a      <TextComponent name="Instr_or_7">\u000a        <Param name="opacity" val="1" valType="code" updates="constant"/>\u000a        <Param name="colorSpace" val="rgb" valType="str" updates="constant"/>\u000a        <Param name="name" val="Instr_or_7" valType="code" updates="None"/>\u000a        <Param name="wrapWidth" val="" valType="code" updates="constant"/>\u000a        <Param name="color" val="gray" valType="str" updates="constant"/>\u000a        <Param name="text" val="or" valType="str" updates="constant"/>\u000a        <Param name="stopVal" val="" valType="code" updates="constant"/>\u000a        <Param name="durationEstim" val="" valType="code" updates="None"/>\u000a        <Param name="pos" val="[-0.8,0.7]" valType="code" updates="constant"/>\u000a        <Param name="flip" val="" valType="str" updates="constant"/>\u000a        <Param name="startEstim" val="" valType="code" updates="None"/>\u000a        <Param name="units" val="from exp settings" valType="str" updates="None"/>\u000a        <Param name="startType" val="time (s)" valType="str" updates="None"/>\u000a        <Param name="ori" val="0" valType="code" updates="constant"/>\u000a        <Param name="stopType" val="duration (s)" valType="str" updates="None"/>\u000a        <Param name="startVal" val="0.0" valType="code" updates="None"/>\u000a        <Param name="font" val="Arial" valType="str" updates="constant"/>\u000a        <Param name="letterHeight" val="0.1" valType="code" updates="constant"/>\u000a      </TextComponent>\u000a      <TextComponent name="Instr_Bad_7">\u000a        <Param name="opacity" val="1" valType="code" updates="constant"/>\u000a        <Param name="colorSpace" val="rgb" valType="str" updates="constant"/>\u000a        <Param name="name" val="Instr_Bad_7" valType="code" updates="None"/>\u000a        <Param name="wrapWidth" val="" valType="code" updates="constant"/>\u000a        <Param name="color" val="limegreen" valType="str" updates="constant"/>\u000a        <Param name="text" val="Bad" valType="str" updates="constant"/>\u000a        <Param name="stopVal" val="" valType="code" updates="constant"/>\u000a        <Param name="durationEstim" val="" valType="code" updates="None"/>\u000a        <Param name="pos" val="[-0.8,0.6]" valType="code" updates="constant"/>\u000a        <Param name="flip" val="" valType="str" updates="constant"/>\u000a        <Param name="startEstim" val="" valType="code" updates="None"/>\u000a        <Param name="units" val="from exp settings" valType="str" updates="None"/>\u000a        <Param name="startType" val="time (s)" valType="str" updates="None"/>\u000a        <Param name="ori" val="0" valType="code" updates="constant"/>\u000a        <Param name="stopType" val="duration (s)" valType="str" updates="None"/>\u000a        <Param name="startVal" val="0.0" valType="code" updates="None"/>\u000a        <Param name="font" val="Arial" valType="str" updates="constant"/>\u000a        <Param name="letterHeight" val="0.15" valType="code" updates="constant"/>\u000a      </TextComponent>\u000a      <TextComponent name="Instr_Creat_7">\u000a        <Param name="opacity" val="1" valType="code" updates="constant"/>\u000a        <Param name="colorSpace" val="rgb" valType="str" updates="constant"/>\u000a        <Param name="name" val="Instr_Creat_7" valType="code" updates="None"/>\u000a        <Param name="wrapWidth" val="" valType="code" updates="constant"/>\u000a        <Param name="color" val="skyblue" valType="str" updates="constant"/>\u000a        <Param name="text" val="Creative" valType="str" updates="constant"/>\u000a        <Param name="stopVal" val="" valType="code" updates="constant"/>\u000a        <Param name="durationEstim" val="" valType="code" updates="None"/>\u000a        <Param name="pos" val="[0.8*side,0.8]" valType="code" updates="constant"/>\u000a        <Param name="flip" val="" valType="str" updates="constant"/>\u000a        <Param name="startEstim" val="" valType="code" updates="None"/>\u000a        <Param name="units" val="from exp settings" valType="str" updates="None"/>\u000a        <Param name="startType" val="time (s)" valType="str" updates="None"/>\u000a        <Param name="ori" val="0" valType="code" updates="constant"/>\u000a        <Param name="stopType" val="duration (s)" valType="str" updates="None"/>\u000a        <Param name="startVal" val="0.0" valType="code" updates="None"/>\u000a        <Param name="font" val="Arial" valType="str" updates="constant"/>\u000a        <Param name="letterHeight" val="0.15" valType="code" updates="constant"/>\u000a      </TextComponent>\u000a      <TextComponent name="Instr_or_7_2">\u000a        <Param name="opacity" val="1" valType="code" updates="constant"/>\u000a        <Param name="colorSpace" val="rgb" valType="str" updates="constant"/>\u000a        <Param name="name" val="Instr_or_7_2" valType="code" updates="None"/>\u000a        <Param name="wrapWidth" val="" valType="code" updates="constant"/>\u000a        <Param name="color" val="gray" valType="str" updates="constant"/>\u000a        <Param name="text" val="or" valType="str" updates="constant"/>\u000a        <Param name="stopVal" val="" valType="code" updates="constant"/>\u000a        <Param name="durationEstim" val="" valType="code" updates="None"/>\u000a        <Param name="pos" val="[0.8,0.7]" valType="code" updates="constant"/>\u000a        <Param name="flip" val="" valType="str" updates="constant"/>\u000a        <Param name="startEstim" val="" valType="code" updates="None"/>\u000a        <Param name="units" val="from exp settings" valType="str" updates="None"/>\u000a        <Param name="startType" val="time (s)" valType="str" updates="None"/>\u000a        <Param name="ori" val="0" valType="code" updates="constant"/>\u000a        <Param name="stopType" val="duration (s)" valType="str" updates="None"/>\u000a        <Param name="startVal" val="0.0" valType="code" updates="None"/>\u000a        <Param name="font" val="Arial" valType="str" updates="constant"/>\u000a        <Param name="letterHeight" val="0.1" valType="code" updates="constant"/>\u000a      </TextComponent>\u000a      <TextComponent name="Instr_Good_7">\u000a        <Param name="opacity" val="1" valType="code" updates="constant"/>\u000a        <Param name="colorSpace" val="rgb" valType="str" updates="constant"/>\u000a        <Param name="name" val="Instr_Good_7" valType="code" updates="None"/>\u000a        <Param name="wrapWidth" val="" valType="code" updates="constant"/>\u000a        <Param name="color" val="limegreen" valType="str" updates="constant"/>\u000a        <Param name="text" val="Good" valType="str" updates="constant"/>\u000a        <Param name="stopVal" val="" valType="code" updates="constant"/>\u000a        <Param name="durationEstim" val="" valType="code" updates="None"/>\u000a        <Param name="pos" val="[0.8,0.6]" valType="code" updates="constant"/>\u000a        <Param name="flip" val="" valType="str" updates="constant"/>\u000a        <Param name="startEstim" val="" valType="code" updates="None"/>\u000a        <Param name="units" val="from exp settings" valType="str" updates="None"/>\u000a        <Param name="startType" val="time (s)" valType="str" updates="None"/>\u000a        <Param name="ori" val="0" valType="code" updates="constant"/>\u000a        <Param name="stopType" val="duration (s)" valType="str" updates="None"/>\u000a        <Param name="startVal" val="0.0" valType="code" updates="None"/>\u000a        <Param name="font" val="Arial" valType="str" updates="constant"/>\u000a        <Param name="letterHeight" val="0.15" valType="code" updates="constant"/>\u000a      </TextComponent>\u000a    </Routine>\u000a    <Routine name="Block_1">\u000a      <TextComponent name="Creative">\u000a        <Param name="opacity" val="1" valType="code" updates="constant"/>\u000a        <Param name="colorSpace" val="rgb" valType="str" updates="constant"/>\u000a        <Param name="name" val="Creative" valType="code" updates="None"/>\u000a        <Param name="wrapWidth" val="" valType="code" updates="constant"/>\u000a        <Param name="color" val="skyblue" valType="str" updates="constant"/>\u000a        <Param name="text" val="Creative" valType="str" updates="constant"/>\u000a        <Param name="stopVal" val="" valType="code" updates="constant"/>\u000a        <Param name="durationEstim" val="" valType="code" updates="None"/>\u000a        <Param name="pos" val="[-.65*side, 0.65]" valType="code" updates="set every repeat"/>\u000a        <Param name="flip" val="" valType="str" updates="constant"/>\u000a        <Param name="startEstim" val="" valType="code" updates="None"/>\u000a        <Param name="units" val="from exp settings" valType="str" updates="None"/>\u000a        <Param name="startType" val="time (s)" valType="str" updates="None"/>\u000a        <Param name="ori" val="0" valType="code" updates="constant"/>\u000a        <Param name="stopType" val="duration (s)" valType="str" updates="None"/>\u000a        <Param name="startVal" val="0.0" valType="code" updates="None"/>\u000a        <Param name="font" val="Arial" valType="str" updates="constant"/>\u000a        <Param name="letterHeight" val="0.15" valType="code" updates="constant"/>\u000a      </TextComponent>\u000a      <TextComponent name="Practical">\u000a        <Param name="opacity" val="1" valType="code" updates="constant"/>\u000a        <Param name="colorSpace" val="rgb" valType="str" updates="constant"/>\u000a        <Param name="name" val="Practical" valType="code" updates="None"/>\u000a        <Param name="wrapWidth" val="" valType="code" updates="constant"/>\u000a        <Param name="color" val="skyblue" valType="str" updates="constant"/>\u000a        <Param name="text" val="Practical" valType="str" updates="constant"/>\u000a        <Param name="stopVal" val="" valType="code" updates="constant"/>\u000a        <Param name="durationEstim" val="" valType="code" updates="None"/>\u000a        <Param name="pos" val="[.65*side, 0.65]" valType="code" updates="set every repeat"/>\u000a        <Param name="flip" val="" valType="str" updates="constant"/>\u000a        <Param name="startEstim" val="" valType="code" updates="None"/>\u000a        <Param name="units" val="from exp settings" valType="str" updates="None"/>\u000a        <Param name="startType" val="time (s)" valType="str" updates="None"/>\u000a        <Param name="ori" val="0" valType="code" updates="constant"/>\u000a        <Param name="stopType" val="duration (s)" valType="str" updates="None"/>\u000a        <Param name="startVal" val="0.0" valType="code" updates="None"/>\u000a        <Param name="font" val="Arial" valType="str" updates="constant"/>\u000a        <Param name="letterHeight" val="0.15" valType="code" updates="constant"/>\u000a      </TextComponent>\u000a      <TextComponent name="Word_1">\u000a        <Param name="opacity" val="1" valType="code" updates="constant"/>\u000a        <Param name="colorSpace" val="rgb" valType="str" updates="constant"/>\u000a        <Param name="name" val="Word_1" valType="code" updates="None"/>\u000a        <Param name="wrapWidth" val="" valType="code" updates="constant"/>\u000a        <Param name="color" val="$color" valType="str" updates="set every repeat"/>\u000a        <Param name="text" val="$word" valType="str" updates="set every repeat"/>\u000a        <Param name="stopVal" val="" valType="code" updates="constant"/>\u000a        <Param name="durationEstim" val="" valType="code" updates="None"/>\u000a        <Param name="pos" val="[0, 0]" valType="code" updates="constant"/>\u000a        <Param name="flip" val="" valType="str" updates="constant"/>\u000a        <Param name="startEstim" val="" valType="code" updates="None"/>\u000a        <Param name="units" val="from exp settings" valType="str" updates="None"/>\u000a        <Param name="startType" val="time (s)" valType="str" updates="None"/>\u000a        <Param name="ori" val="0" valType="code" updates="constant"/>\u000a        <Param name="stopType" val="duration (s)" valType="str" updates="None"/>\u000a        <Param name="startVal" val="0.3" valType="code" updates="None"/>\u000a        <Param name="font" val="Arial" valType="str" updates="constant"/>\u000a        <Param name="letterHeight" val="0.15" valType="code" updates="constant"/>\u000a      </TextComponent>\u000a      <KeyboardComponent name="Response_1">\u000a        <Param name="correctAns" val="$corr(thisTrial.key, side, thisTrial.condition)" valType="str" updates="constant"/>\u000a        <Param name="storeCorrect" val="True" valType="bool" updates="constant"/>\u000a        <Param name="name" val="Response_1" valType="code" updates="None"/>\u000a        <Param name="stopVal" val="Wrong_1.status == STARTED" valType="code" updates="constant"/>\u000a        <Param name="durationEstim" val="" valType="code" updates="None"/>\u000a        <Param name="forceEndRoutine" val="False" valType="bool" updates="constant"/>\u000a        <Param name="startEstim" val="" valType="code" updates="None"/>\u000a        <Param name="discard previous" val="False" valType="bool" updates="constant"/>\u000a        <Param name="startType" val="time (s)" valType="str" updates="None"/>\u000a        <Param name="allowedKeys" val="'e','i'" valType="code" updates="constant"/>\u000a        <Param name="stopType" val="condition" valType="str" updates="None"/>\u000a        <Param name="startVal" val="0.3" valType="code" updates="None"/>\u000a        <Param name="store" val="first key" valType="str" updates="constant"/>\u000a      </KeyboardComponent>\u000a      <CodeComponent name="code_1">\u000a        <Param name="Begin Experiment" val="" valType="extendedCode" updates="constant"/>\u000a        <Param name="name" val="code_1" valType="code" updates="None"/>\u000a        <Param name="Each Frame" val="if Response_1.status == STARTED:&#10;    if len(theseKeys) &gt; 0:&#10;        if Response_1.corr == 1:&#10;            continueRoutine = False&#10;        else:&#10;            Wrong_1.setAutoDraw(True)&#10;            Wrong_1.status = STARTED" valType="extendedCode" updates="constant"/>\u000a        <Param name="Begin Routine" val="" valType="extendedCode" updates="constant"/>\u000a        <Param name="End Routine" val="" valType="extendedCode" updates="constant"/>\u000a        <Param name="End Experiment" val="" valType="extendedCode" updates="constant"/>\u000a      </CodeComponent>\u000a      <KeyboardComponent name="Keys_1">\u000a        <Param name="correctAns" val="$corr(thisTrial.key, side, thisTrial.condition)" valType="str" updates="constant"/>\u000a        <Param name="storeCorrect" val="True" valType="bool" updates="constant"/>\u000a        <Param name="name" val="Keys_1" valType="code" updates="None"/>\u000a        <Param name="stopVal" val="" valType="code" updates="constant"/>\u000a        <Param name="durationEstim" val="" valType="code" updates="None"/>\u000a        <Param name="forceEndRoutine" val="True" valType="bool" updates="constant"/>\u000a        <Param name="startEstim" val="" valType="code" updates="None"/>\u000a        <Param name="discard previous" val="True" valType="bool" updates="constant"/>\u000a        <Param name="startType" val="condition" valType="str" updates="None"/>\u000a        <Param name="allowedKeys" val="'e','i'" valType="code" updates="constant"/>\u000a        <Param name="stopType" val="duration (s)" valType="str" updates="None"/>\u000a        <Param name="startVal" val="Wrong_1.status==STARTED" valType="code" updates="None"/>\u000a        <Param name="store" val="first key" valType="str" updates="constant"/>\u000a      </KeyboardComponent>\u000a      <TextComponent name="Wrong_1">\u000a        <Param name="opacity" val="1" valType="code" updates="constant"/>\u000a        <Param name="colorSpace" val="rgb" valType="str" updates="constant"/>\u000a        <Param name="name" val="Wrong_1" valType="code" updates="None"/>\u000a        <Param name="wrapWidth" val="" valType="code" updates="constant"/>\u000a        <Param name="color" val="red" valType="str" updates="constant"/>\u000a        <Param name="text" val="X" valType="str" updates="constant"/>\u000a        <Param name="stopVal" val="" valType="code" updates="constant"/>\u000a        <Param name="durationEstim" val="" valType="code" updates="None"/>\u000a        <Param name="pos" val="[0, -.3]" valType="code" updates="constant"/>\u000a        <Param name="flip" val="" valType="str" updates="constant"/>\u000a        <Param name="startEstim" val="" valType="code" updates="None"/>\u000a        <Param name="units" val="from exp settings" valType="str" updates="None"/>\u000a        <Param name="startType" val="condition" valType="str" updates="None"/>\u000a        <Param name="ori" val="0" valType="code" updates="constant"/>\u000a        <Param name="stopType" val="duration (s)" valType="str" updates="None"/>\u000a        <Param name="startVal" val="len(theseKeys)&gt;5" valType="code" updates="None"/>\u000a        <Param name="font" val="Arial" valType="str" updates="constant"/>\u000a        <Param name="letterHeight" val="0.1" valType="code" updates="constant"/>\u000a      </TextComponent>\u000a    </Routine>\u000a    <Routine name="Instr_1">\u000a      <TextComponent name="Instr_1x">\u000a        <Param name="opacity" val="1" valType="code" updates="constant"/>\u000a        <Param name="colorSpace" val="rgb" valType="str" updates="constant"/>\u000a        <Param name="name" val="Instr_1x" valType="code" updates="None"/>\u000a        <Param name="wrapWidth" val="1.2" valType="code" updates="constant"/>\u000a        <Param name="color" val="white" valType="str" updates="constant"/>\u000a        <Param name="text" val="In the first set, you will be determining if a word is &quot;creative&quot; or &quot;practical&quot; as follows:&#13;&#10;&#13;&#10;&quot;Creative&quot;: Creative, Novel, Inventive, Newfangled, Original, Different&#13;&#10;&#13;&#10;&quot;Practical&quot;: Practical, Applied, Useful, Functional, Efficient, Constructive&#13;&#10;&#13;&#10;Press 'e' to sort the word into the category on the left, and 'i' to sort it into the category on the right.&#13;&#10;&#13;&#10;If you press the wrong key, an 'X' will appear on the screen. You should then press the other key.&#13;&#10;&#13;&#10;Position your index fingers over the 'e' and 'i' keys. Press the spacebar with your thumb to begin the trials." valType="str" updates="constant"/>\u000a        <Param name="stopVal" val="" valType="code" updates="constant"/>\u000a        <Param name="durationEstim" val="" valType="code" updates="None"/>\u000a        <Param name="pos" val="[0.03, 0]" valType="code" updates="constant"/>\u000a        <Param name="flip" val="" valType="str" updates="constant"/>\u000a        <Param name="startEstim" val="" valType="code" updates="None"/>\u000a        <Param name="units" val="from exp settings" valType="str" updates="None"/>\u000a        <Param name="startType" val="time (s)" valType="str" updates="None"/>\u000a        <Param name="ori" val="0" valType="code" updates="constant"/>\u000a        <Param name="stopType" val="duration (s)" valType="str" updates="None"/>\u000a        <Param name="startVal" val="0.0" valType="code" updates="None"/>\u000a        <Param name="font" val="Arial" valType="str" updates="constant"/>\u000a        <Param name="letterHeight" val="0.08" valType="code" updates="constant"/>\u000a      </TextComponent>\u000a      <KeyboardComponent name="Instr_key_resp_1x">\u000a        <Param name="correctAns" val="" valType="str" updates="constant"/>\u000a        <Param name="storeCorrect" val="False" valType="bool" updates="constant"/>\u000a        <Param name="name" val="Instr_key_resp_1x" valType="code" updates="None"/>\u000a        <Param name="stopVal" val="" valType="code" updates="constant"/>\u000a        <Param name="durationEstim" val="" valType="code" updates="None"/>\u000a        <Param name="forceEndRoutine" val="True" valType="bool" updates="constant"/>\u000a        <Param name="startEstim" val="" valType="code" updates="None"/>\u000a        <Param name="discard previous" val="True" valType="bool" updates="constant"/>\u000a        <Param name="startType" val="time (s)" valType="str" updates="None"/>\u000a        <Param name="allowedKeys" val="'space'" valType="code" updates="constant"/>\u000a        <Param name="stopType" val="duration (s)" valType="str" updates="None"/>\u000a        <Param name="startVal" val="0.0" valType="code" updates="None"/>\u000a        <Param name="store" val="last key" valType="str" updates="constant"/>\u000a      </KeyboardComponent>\u000a      <TextComponent name="Instr_Creat_1">\u000a        <Param name="opacity" val="1" valType="code" updates="constant"/>\u000a        <Param name="colorSpace" val="rgb" valType="str" updates="constant"/>\u000a        <Param name="name" val="Instr_Creat_1" valType="code" updates="None"/>\u000a        <Param name="wrapWidth" val="" valType="code" updates="constant"/>\u000a        <Param name="color" val="skyblue" valType="str" updates="constant"/>\u000a        <Param name="text" val="Creative" valType="str" updates="constant"/>\u000a        <Param name="stopVal" val="" valType="code" updates="constant"/>\u000a        <Param name="durationEstim" val="" valType="code" updates="None"/>\u000a        <Param name="pos" val="[-.8*side, 0.8]" valType="code" updates="set every repeat"/>\u000a        <Param name="flip" val="" valType="str" updates="constant"/>\u000a        <Param name="startEstim" val="" valType="code" updates="None"/>\u000a        <Param name="units" val="from exp settings" valType="str" updates="None"/>\u000a        <Param name="startType" val="time (s)" valType="str" updates="None"/>\u000a        <Param name="ori" val="0" valType="code" updates="constant"/>\u000a        <Param name="stopType" val="duration (s)" valType="str" updates="None"/>\u000a        <Param name="startVal" val="0.0" valType="code" updates="None"/>\u000a        <Param name="font" val="Arial" valType="str" updates="constant"/>\u000a        <Param name="letterHeight" val="0.15" valType="code" updates="constant"/>\u000a      </TextComponent>\u000a      <TextComponent name="Instr_Prac_1">\u000a        <Param name="opacity" val="1" valType="code" updates="constant"/>\u000a        <Param name="colorSpace" val="rgb" valType="str" updates="constant"/>\u000a        <Param name="name" val="Instr_Prac_1" valType="code" updates="None"/>\u000a        <Param name="wrapWidth" val="" valType="code" updates="constant"/>\u000a        <Param name="color" val="skyblue" valType="str" updates="constant"/>\u000a        <Param name="text" val="Practical" valType="str" updates="constant"/>\u000a        <Param name="stopVal" val="" valType="code" updates="constant"/>\u000a        <Param name="durationEstim" val="" valType="code" updates="None"/>\u000a        <Param name="pos" val="[0.8*side, 0.8]" valType="code" updates="set every repeat"/>\u000a        <Param name="flip" val="" valType="str" updates="constant"/>\u000a        <Param name="startEstim" val="" valType="code" updates="None"/>\u000a        <Param name="units" val="from exp settings" valType="str" updates="None"/>\u000a        <Param name="startType" val="time (s)" valType="str" updates="None"/>\u000a        <Param name="ori" val="0" valType="code" updates="constant"/>\u000a        <Param name="stopType" val="duration (s)" valType="str" updates="None"/>\u000a        <Param name="startVal" val="0.0" valType="code" updates="None"/>\u000a        <Param name="font" val="Arial" valType="str" updates="constant"/>\u000a        <Param name="letterHeight" val="0.15" valType="code" updates="constant"/>\u000a      </TextComponent>\u000a    </Routine>\u000a    <Routine name="Block_3">\u000a      <TextComponent name="Creative_3">\u000a        <Param name="opacity" val="1" valType="code" updates="constant"/>\u000a        <Param name="colorSpace" val="rgb" valType="str" updates="constant"/>\u000a        <Param name="name" val="Creative_3" valType="code" updates="None"/>\u000a        <Param name="wrapWidth" val="" valType="code" updates="constant"/>\u000a        <Param name="color" val="skyblue" valType="str" updates="constant"/>\u000a        <Param name="text" val="Creative" valType="str" updates="constant"/>\u000a        <Param name="stopVal" val="" valType="code" updates="constant"/>\u000a        <Param name="durationEstim" val="" valType="code" updates="None"/>\u000a        <Param name="pos" val="[-.8*side, 0.8]" valType="code" updates="constant"/>\u000a        <Param name="flip" val="" valType="str" updates="constant"/>\u000a        <Param name="startEstim" val="" valType="code" updates="None"/>\u000a        <Param name="units" val="from exp settings" valType="str" updates="None"/>\u000a        <Param name="startType" val="time (s)" valType="str" updates="None"/>\u000a        <Param name="ori" val="0" valType="code" updates="constant"/>\u000a        <Param name="stopType" val="duration (s)" valType="str" updates="None"/>\u000a        <Param name="startVal" val="0.0" valType="code" updates="None"/>\u000a        <Param name="font" val="Arial" valType="str" updates="constant"/>\u000a        <Param name="letterHeight" val="0.15" valType="code" updates="constant"/>\u000a      </TextComponent>\u000a      <TextComponent name="or_3">\u000a        <Param name="opacity" val="1" valType="code" updates="constant"/>\u000a        <Param name="colorSpace" val="rgb" valType="str" updates="constant"/>\u000a        <Param name="name" val="or_3" valType="code" updates="None"/>\u000a        <Param name="wrapWidth" val="" valType="code" updates="constant"/>\u000a        <Param name="color" val="gray" valType="str" updates="constant"/>\u000a        <Param name="text" val="or" valType="str" updates="constant"/>\u000a        <Param name="stopVal" val="" valType="code" updates="constant"/>\u000a        <Param name="durationEstim" val="" valType="code" updates="None"/>\u000a        <Param name="pos" val="[-.8, 0.7]" valType="code" updates="constant"/>\u000a        <Param name="flip" val="" valType="str" updates="constant"/>\u000a        <Param name="startEstim" val="" valType="code" updates="None"/>\u000a        <Param name="units" val="from exp settings" valType="str" updates="None"/>\u000a        <Param name="startType" val="time (s)" valType="str" updates="None"/>\u000a        <Param name="ori" val="0" valType="code" updates="constant"/>\u000a        <Param name="stopType" val="duration (s)" valType="str" updates="None"/>\u000a        <Param name="startVal" val="0.0" valType="code" updates="None"/>\u000a        <Param name="font" val="Arial" valType="str" updates="constant"/>\u000a        <Param name="letterHeight" val="0.1" valType="code" updates="constant"/>\u000a      </TextComponent>\u000a      <TextComponent name="Bad_3">\u000a        <Param name="opacity" val="1" valType="code" updates="constant"/>\u000a        <Param name="colorSpace" val="rgb" valType="str" updates="constant"/>\u000a        <Param name="name" val="Bad_3" valType="code" updates="None"/>\u000a        <Param name="wrapWidth" val="" valType="code" updates="constant"/>\u000a        <Param name="color" val="limegreen" valType="str" updates="constant"/>\u000a        <Param name="text" val="Bad" valType="str" updates="constant"/>\u000a        <Param name="stopVal" val="" valType="code" updates="constant"/>\u000a        <Param name="durationEstim" val="" valType="code" updates="None"/>\u000a        <Param name="pos" val="[-.8, 0.6]" valType="code" updates="constant"/>\u000a        <Param name="flip" val="" valType="str" updates="constant"/>\u000a        <Param name="startEstim" val="" valType="code" updates="None"/>\u000a        <Param name="units" val="from exp settings" valType="str" updates="None"/>\u000a        <Param name="startType" val="time (s)" valType="str" updates="None"/>\u000a        <Param name="ori" val="0" valType="code" updates="constant"/>\u000a        <Param name="stopType" val="duration (s)" valType="str" updates="None"/>\u000a        <Param name="startVal" val="0.0" valType="code" updates="None"/>\u000a        <Param name="font" val="Arial" valType="str" updates="constant"/>\u000a        <Param name="letterHeight" val="0.15" valType="code" updates="constant"/>\u000a      </TextComponent>\u000a      <TextComponent name="Practical_3">\u000a        <Param name="opacity" val="1" valType="code" updates="constant"/>\u000a        <Param name="colorSpace" val="rgb" valType="str" updates="constant"/>\u000a        <Param name="name" val="Practical_3" valType="code" updates="None"/>\u000a        <Param name="wrapWidth" val="" valType="code" updates="constant"/>\u000a        <Param name="color" val="skyblue" valType="str" updates="constant"/>\u000a        <Param name="text" val="Practical" valType="str" updates="constant"/>\u000a        <Param name="stopVal" val="" valType="code" updates="constant"/>\u000a        <Param name="durationEstim" val="" valType="code" updates="None"/>\u000a        <Param name="pos" val="[.8*side, 0.8]" valType="code" updates="constant"/>\u000a        <Param name="flip" val="" valType="str" updates="constant"/>\u000a        <Param name="startEstim" val="" valType="code" updates="None"/>\u000a        <Param name="units" val="from exp settings" valType="str" updates="None"/>\u000a        <Param name="startType" val="time (s)" valType="str" updates="None"/>\u000a        <Param name="ori" val="0" valType="code" updates="constant"/>\u000a        <Param name="stopType" val="duration (s)" valType="str" updates="None"/>\u000a        <Param name="startVal" val="0.0" valType="code" updates="None"/>\u000a        <Param name="font" val="Arial" valType="str" updates="constant"/>\u000a        <Param name="letterHeight" val="0.15" valType="code" updates="constant"/>\u000a      </TextComponent>\u000a      <TextComponent name="or_2_3">\u000a        <Param name="opacity" val="1" valType="code" updates="constant"/>\u000a        <Param name="colorSpace" val="rgb" valType="str" updates="constant"/>\u000a        <Param name="name" val="or_2_3" valType="code" updates="None"/>\u000a        <Param name="wrapWidth" val="" valType="code" updates="constant"/>\u000a        <Param name="color" val="gray" valType="str" updates="constant"/>\u000a        <Param name="text" val="or" valType="str" updates="constant"/>\u000a        <Param name="stopVal" val="" valType="code" updates="constant"/>\u000a        <Param name="durationEstim" val="" valType="code" updates="None"/>\u000a        <Param name="pos" val="[0.8,0.7]" valType="code" updates="constant"/>\u000a        <Param name="flip" val="" valType="str" updates="constant"/>\u000a        <Param name="startEstim" val="" valType="code" updates="None"/>\u000a        <Param name="units" val="from exp settings" valType="str" updates="None"/>\u000a        <Param name="startType" val="time (s)" valType="str" updates="None"/>\u000a        <Param name="ori" val="0" valType="code" updates="constant"/>\u000a        <Param name="stopType" val="duration (s)" valType="str" updates="None"/>\u000a        <Param name="startVal" val="0.0" valType="code" updates="None"/>\u000a        <Param name="font" val="Arial" valType="str" updates="constant"/>\u000a        <Param name="letterHeight" val="0.1" valType="code" updates="constant"/>\u000a      </TextComponent>\u000a      <TextComponent name="Good_3">\u000a        <Param name="opacity" val="1" valType="code" updates="constant"/>\u000a        <Param name="colorSpace" val="rgb" valType="str" updates="constant"/>\u000a        <Param name="name" val="Good_3" valType="code" updates="None"/>\u000a        <Param name="wrapWidth" val="" valType="code" updates="constant"/>\u000a        <Param name="color" val="limegreen" valType="str" updates="constant"/>\u000a        <Param name="text" val="Good" valType="str" updates="constant"/>\u000a        <Param name="stopVal" val="" valType="code" updates="constant"/>\u000a        <Param name="durationEstim" val="" valType="code" updates="None"/>\u000a        <Param name="pos" val="[0.8,0.6]" valType="code" updates="constant"/>\u000a        <Param name="flip" val="" valType="str" updates="constant"/>\u000a        <Param name="startEstim" val="" valType="code" updates="None"/>\u000a        <Param name="units" val="from exp settings" valType="str" updates="None"/>\u000a        <Param name="startType" val="time (s)" valType="str" updates="None"/>\u000a        <Param name="ori" val="0" valType="code" updates="constant"/>\u000a        <Param name="stopType" val="duration (s)" valType="str" updates="None"/>\u000a        <Param name="startVal" val="0.0" valType="code" updates="None"/>\u000a        <Param name="font" val="Arial" valType="str" updates="constant"/>\u000a        <Param name="letterHeight" val="0.15" valType="code" updates="constant"/>\u000a      </TextComponent>\u000a      <TextComponent name="Word_3">\u000a        <Param name="opacity" val="1" valType="code" updates="constant"/>\u000a        <Param name="colorSpace" val="rgb" valType="str" updates="constant"/>\u000a        <Param name="name" val="Word_3" valType="code" updates="None"/>\u000a        <Param name="wrapWidth" val="" valType="code" updates="constant"/>\u000a        <Param name="color" val="$color" valType="str" updates="set every repeat"/>\u000a        <Param name="text" val="$word" valType="str" updates="set every repeat"/>\u000a        <Param name="stopVal" val="" valType="code" updates="constant"/>\u000a        <Param name="durationEstim" val="" valType="code" updates="None"/>\u000a        <Param name="pos" val="[0, 0]" valType="code" updates="constant"/>\u000a        <Param name="flip" val="" valType="str" updates="constant"/>\u000a        <Param name="startEstim" val="" valType="code" updates="None"/>\u000a        <Param name="units" val="from exp settings" valType="str" updates="None"/>\u000a        <Param name="startType" val="time (s)" valType="str" updates="None"/>\u000a        <Param name="ori" val="0" valType="code" updates="constant"/>\u000a        <Param name="stopType" val="duration (s)" valType="str" updates="None"/>\u000a        <Param name="startVal" val="0.3" valType="code" updates="None"/>\u000a        <Param name="font" val="Arial" valType="str" updates="constant"/>\u000a        <Param name="letterHeight" val="0.15" valType="code" updates="constant"/>\u000a      </TextComponent>\u000a      <KeyboardComponent name="Response_3">\u000a        <Param name="correctAns" val="$corr(key, side, condition)" valType="str" updates="constant"/>\u000a        <Param name="storeCorrect" val="True" valType="bool" updates="constant"/>\u000a        <Param name="name" val="Response_3" valType="code" updates="None"/>\u000a        <Param name="stopVal" val="Wrong_3.status==STARTED" valType="code" updates="constant"/>\u000a        <Param name="durationEstim" val="" valType="code" updates="None"/>\u000a        <Param name="forceEndRoutine" val="False" valType="bool" updates="constant"/>\u000a        <Param name="startEstim" val="" valType="code" updates="None"/>\u000a        <Param name="discard previous" val="False" valType="bool" updates="constant"/>\u000a        <Param name="startType" val="time (s)" valType="str" updates="None"/>\u000a        <Param name="allowedKeys" val="'e','i'" valType="code" updates="constant"/>\u000a        <Param name="stopType" val="condition" valType="str" updates="None"/>\u000a        <Param name="startVal" val="0.3" valType="code" updates="None"/>\u000a        <Param name="store" val="first key" valType="str" updates="constant"/>\u000a      </KeyboardComponent>\u000a      <CodeComponent name="code_3">\u000a        <Param name="Begin Experiment" val="" valType="extendedCode" updates="constant"/>\u000a        <Param name="name" val="code_3" valType="code" updates="None"/>\u000a        <Param name="Each Frame" val="if Response_3.status == STARTED:&#10;    if len(theseKeys) &gt; 0:&#10;        if Response_3.corr == 1:&#10;            continueRoutine=False&#10;        else:&#10;            Wrong_3.setAutoDraw(True)&#10;            Wrong_3.status = STARTED" valType="extendedCode" updates="constant"/>\u000a        <Param name="Begin Routine" val="" valType="extendedCode" updates="constant"/>\u000a        <Param name="End Routine" val="" valType="extendedCode" updates="constant"/>\u000a        <Param name="End Experiment" val="" valType="extendedCode" updates="constant"/>\u000a      </CodeComponent>\u000a      <KeyboardComponent name="Keys_3">\u000a        <Param name="correctAns" val="$corr(key, side, condition)" valType="str" updates="constant"/>\u000a        <Param name="storeCorrect" val="True" valType="bool" updates="constant"/>\u000a        <Param name="name" val="Keys_3" valType="code" updates="None"/>\u000a        <Param name="stopVal" val="" valType="code" updates="constant"/>\u000a        <Param name="durationEstim" val="" valType="code" updates="None"/>\u000a        <Param name="forceEndRoutine" val="True" valType="bool" updates="constant"/>\u000a        <Param name="startEstim" val="" valType="code" updates="None"/>\u000a        <Param name="discard previous" val="True" valType="bool" updates="constant"/>\u000a        <Param name="startType" val="condition" valType="str" updates="None"/>\u000a        <Param name="allowedKeys" val="'e','i'" valType="code" updates="constant"/>\u000a        <Param name="stopType" val="duration (s)" valType="str" updates="None"/>\u000a        <Param name="startVal" val="Wrong_3.status==STARTED" valType="code" updates="None"/>\u000a        <Param name="store" val="first key" valType="str" updates="constant"/>\u000a      </KeyboardComponent>\u000a      <TextComponent name="Wrong_3">\u000a        <Param name="opacity" val="1" valType="code" updates="constant"/>\u000a        <Param name="colorSpace" val="rgb" valType="str" updates="constant"/>\u000a        <Param name="name" val="Wrong_3" valType="code" updates="None"/>\u000a        <Param name="wrapWidth" val="" valType="code" updates="constant"/>\u000a        <Param name="color" val="red" valType="str" updates="constant"/>\u000a        <Param name="text" val="X" valType="str" updates="constant"/>\u000a        <Param name="stopVal" val="" valType="code" updates="constant"/>\u000a        <Param name="durationEstim" val="" valType="code" updates="None"/>\u000a        <Param name="pos" val="[0, -.3]" valType="code" updates="constant"/>\u000a        <Param name="flip" val="" valType="str" updates="constant"/>\u000a        <Param name="startEstim" val="" valType="code" updates="None"/>\u000a        <Param name="units" val="from exp settings" valType="str" updates="None"/>\u000a        <Param name="startType" val="condition" valType="str" updates="None"/>\u000a        <Param name="ori" val="0" valType="code" updates="constant"/>\u000a        <Param name="stopType" val="duration (s)" valType="str" updates="None"/>\u000a        <Param name="startVal" val="len(theseKeys)&gt;5" valType="code" updates="None"/>\u000a        <Param name="font" val="Arial" valType="str" updates="constant"/>\u000a        <Param name="letterHeight" val="0.1" valType="code" updates="constant"/>\u000a      </TextComponent>\u000a    </Routine>\u000a    <Routine name="Block_2">\u000a      <TextComponent name="Bad">\u000a        <Param name="opacity" val="1" valType="code" updates="constant"/>\u000a        <Param name="colorSpace" val="rgb" valType="str" updates="constant"/>\u000a        <Param name="name" val="Bad" valType="code" updates="None"/>\u000a        <Param name="wrapWidth" val="" valType="code" updates="constant"/>\u000a        <Param name="color" val="limegreen" valType="str" updates="constant"/>\u000a        <Param name="text" val="Bad" valType="str" updates="constant"/>\u000a        <Param name="stopVal" val="" valType="code" updates="constant"/>\u000a        <Param name="durationEstim" val="" valType="code" updates="None"/>\u000a        <Param name="pos" val="[-.8, 0.8]" valType="code" updates="constant"/>\u000a        <Param name="flip" val="" valType="str" updates="constant"/>\u000a        <Param name="startEstim" val="" valType="code" updates="None"/>\u000a        <Param name="units" val="from exp settings" valType="str" updates="None"/>\u000a        <Param name="startType" val="time (s)" valType="str" updates="None"/>\u000a        <Param name="ori" val="0" valType="code" updates="constant"/>\u000a        <Param name="stopType" val="duration (s)" valType="str" updates="None"/>\u000a        <Param name="startVal" val="0.0" valType="code" updates="None"/>\u000a        <Param name="font" val="Arial" valType="str" updates="constant"/>\u000a        <Param name="letterHeight" val="0.15" valType="code" updates="constant"/>\u000a      </TextComponent>\u000a      <TextComponent name="Good">\u000a        <Param name="opacity" val="1" valType="code" updates="constant"/>\u000a        <Param name="colorSpace" val="rgb" valType="str" updates="constant"/>\u000a        <Param name="name" val="Good" valType="code" updates="None"/>\u000a        <Param name="wrapWidth" val="" valType="code" updates="constant"/>\u000a        <Param name="color" val="limegreen" valType="str" updates="constant"/>\u000a        <Param name="text" val="Good" valType="str" updates="constant"/>\u000a        <Param name="stopVal" val="" valType="code" updates="constant"/>\u000a        <Param name="durationEstim" val="" valType="code" updates="None"/>\u000a        <Param name="pos" val="[.8, 0.8]" valType="code" updates="constant"/>\u000a        <Param name="flip" val="" valType="str" updates="constant"/>\u000a        <Param name="startEstim" val="" valType="code" updates="None"/>\u000a        <Param name="units" val="from exp settings" valType="str" updates="None"/>\u000a        <Param name="startType" val="time (s)" valType="str" updates="None"/>\u000a        <Param name="ori" val="0" valType="code" updates="constant"/>\u000a        <Param name="stopType" val="duration (s)" valType="str" updates="None"/>\u000a        <Param name="startVal" val="0.0" valType="code" updates="None"/>\u000a        <Param name="font" val="Arial" valType="str" updates="constant"/>\u000a        <Param name="letterHeight" val="0.15" valType="code" updates="constant"/>\u000a      </TextComponent>\u000a      <TextComponent name="Word_2">\u000a        <Param name="opacity" val="1" valType="code" updates="constant"/>\u000a        <Param name="colorSpace" val="rgb" valType="str" updates="constant"/>\u000a        <Param name="name" val="Word_2" valType="code" updates="None"/>\u000a        <Param name="wrapWidth" val="" valType="code" updates="constant"/>\u000a        <Param name="color" val="$color" valType="str" updates="set every repeat"/>\u000a        <Param name="text" val="$word" valType="str" updates="set every repeat"/>\u000a        <Param name="stopVal" val="" valType="code" updates="constant"/>\u000a        <Param name="durationEstim" val="" valType="code" updates="None"/>\u000a        <Param name="pos" val="[0, 0]" valType="code" updates="constant"/>\u000a        <Param name="flip" val="" valType="str" updates="constant"/>\u000a        <Param name="startEstim" val="" valType="code" updates="None"/>\u000a        <Param name="units" val="from exp settings" valType="str" updates="None"/>\u000a        <Param name="startType" val="time (s)" valType="str" updates="None"/>\u000a        <Param name="ori" val="0" valType="code" updates="constant"/>\u000a        <Param name="stopType" val="duration (s)" valType="str" updates="None"/>\u000a        <Param name="startVal" val="0.3" valType="code" updates="None"/>\u000a        <Param name="font" val="Arial" valType="str" updates="constant"/>\u000a        <Param name="letterHeight" val="0.15" valType="code" updates="constant"/>\u000a      </TextComponent>\u000a      <KeyboardComponent name="Response_2">\u000a        <Param name="correctAns" val="$thisTrial_2.key" valType="str" updates="constant"/>\u000a        <Param name="storeCorrect" val="True" valType="bool" updates="constant"/>\u000a        <Param name="name" val="Response_2" valType="code" updates="None"/>\u000a        <Param name="stopVal" val="Wrong_2.status==STARTED" valType="code" updates="constant"/>\u000a        <Param name="durationEstim" val="" valType="code" updates="None"/>\u000a        <Param name="forceEndRoutine" val="False" valType="bool" updates="constant"/>\u000a        <Param name="startEstim" val="" valType="code" updates="None"/>\u000a        <Param name="discard previous" val="False" valType="bool" updates="constant"/>\u000a        <Param name="startType" val="time (s)" valType="str" updates="None"/>\u000a        <Param name="allowedKeys" val="'e','i'" valType="code" updates="constant"/>\u000a        <Param name="stopType" val="condition" valType="str" updates="None"/>\u000a        <Param name="startVal" val="0.3" valType="code" updates="None"/>\u000a        <Param name="store" val="first key" valType="str" updates="constant"/>\u000a      </KeyboardComponent>\u000a      <CodeComponent name="code_2">\u000a        <Param name="Begin Experiment" val="" valType="extendedCode" updates="constant"/>\u000a        <Param name="name" val="code_2" valType="code" updates="None"/>\u000a        <Param name="Each Frame" val="if Response_2.status==STARTED:&#10;    if len(theseKeys)&gt;0:&#10;        if Response_2.corr ==1:&#10;            continueRoutine=False&#10;        else:&#10;            Wrong_2.setAutoDraw(True)&#10;            Wrong_2.status=STARTED" valType="extendedCode" updates="constant"/>\u000a        <Param name="Begin Routine" val="" valType="extendedCode" updates="constant"/>\u000a        <Param name="End Routine" val="" valType="extendedCode" updates="constant"/>\u000a        <Param name="End Experiment" val="" valType="extendedCode" updates="constant"/>\u000a      </CodeComponent>\u000a      <KeyboardComponent name="Keys_2">\u000a        <Param name="correctAns" val="$thisTrial_2.key" valType="str" updates="constant"/>\u000a        <Param name="storeCorrect" val="True" valType="bool" updates="constant"/>\u000a        <Param name="name" val="Keys_2" valType="code" updates="None"/>\u000a        <Param name="stopVal" val="" valType="code" updates="constant"/>\u000a        <Param name="durationEstim" val="" valType="code" updates="None"/>\u000a        <Param name="forceEndRoutine" val="True" valType="bool" updates="constant"/>\u000a        <Param name="startEstim" val="" valType="code" updates="None"/>\u000a        <Param name="discard previous" val="True" valType="bool" updates="constant"/>\u000a        <Param name="startType" val="condition" valType="str" updates="None"/>\u000a        <Param name="allowedKeys" val="'e','i'" valType="code" updates="constant"/>\u000a        <Param name="stopType" val="duration (s)" valType="str" updates="None"/>\u000a        <Param name="startVal" val="Wrong_2.status==STARTED" valType="code" updates="None"/>\u000a        <Param name="store" val="first key" valType="str" updates="constant"/>\u000a      </KeyboardComponent>\u000a      <TextComponent name="Wrong_2">\u000a        <Param name="opacity" val="1" valType="code" updates="constant"/>\u000a        <Param name="colorSpace" val="rgb" valType="str" updates="constant"/>\u000a        <Param name="name" val="Wrong_2" valType="code" updates="None"/>\u000a        <Param name="wrapWidth" val="" valType="code" updates="constant"/>\u000a        <Param name="color" val="red" valType="str" updates="constant"/>\u000a        <Param name="text" val="X" valType="str" updates="constant"/>\u000a        <Param name="stopVal" val="" valType="code" updates="constant"/>\u000a        <Param name="durationEstim" val="" valType="code" updates="None"/>\u000a        <Param name="pos" val="[0, -.3]" valType="code" updates="constant"/>\u000a        <Param name="flip" val="" valType="str" updates="constant"/>\u000a        <Param name="startEstim" val="" valType="code" updates="None"/>\u000a        <Param name="units" val="from exp settings" valType="str" updates="None"/>\u000a        <Param name="startType" val="condition" valType="str" updates="None"/>\u000a        <Param name="ori" val="0" valType="code" updates="constant"/>\u000a        <Param name="stopType" val="duration (s)" valType="str" updates="None"/>\u000a        <Param name="startVal" val="len(theseKeys)&gt;5" valType="code" updates="None"/>\u000a        <Param name="font" val="Arial" valType="str" updates="constant"/>\u000a        <Param name="letterHeight" val="0.1" valType="code" updates="constant"/>\u000a      </TextComponent>\u000a    </Routine>\u000a  </Routines>\u000a  <Flow>\u000a    <Routine name="Instructions"/>\u000a    <Routine name="Instr_1"/>\u000a    <LoopInitiator loopType="TrialHandler" name="trials">\u000a      <Param name="conditionsFile" val="Creat_Prac.csv" valType="str" updates="None"/>\u000a      <Param name="name" val="trials" valType="code" updates="None"/>\u000a      <Param name="random seed" val="" valType="code" updates="None"/>\u000a      <Param name="loopType" val="random" valType="str" updates="None"/>\u000a      <Param name="nReps" val="2" valType="code" updates="None"/>\u000a      <Param name="endPoints" val="[0, 1]" valType="num" updates="None"/>\u000a      <Param name="conditions" val="[{'color': u'skyblue', 'word': u'Creative', 'condition': u'creative', 'key': u'e'}, {'color': u'skyblue', 'word': u'Novel', 'condition': u'creative', 'key': u'e'}, {'color': u'skyblue', 'word': u'Inventive', 'condition': u'creative', 'key': u'e'}, {'color': u'skyblue', 'word': u'Newfangled', 'condition': u'creative', 'key': u'e'}, {'color': u'skyblue', 'word': u'Original', 'condition': u'creative', 'key': u'e'}, {'color': u'skyblue', 'word': u'Different', 'condition': u'creative', 'key': u'e'}, {'color': u'skyblue', 'word': u'Practical', 'condition': u'practical', 'key': u'i'}, {'color': u'skyblue', 'word': u'Applied', 'condition': u'practical', 'key': u'i'}, {'color': u'skyblue', 'word': u'Useful', 'condition': u'practical', 'key': u'i'}, {'color': u'skyblue', 'word': u'Functional', 'condition': u'practical', 'key': u'i'}, {'color': u'skyblue', 'word': u'Efficient', 'condition': u'practical', 'key': u'i'}, {'color': u'skyblue', 'word': u'Constructive', 'condition': u'practical', 'key': u'i'}]" valType="str" updates="None"/>\u000a    </LoopInitiator>\u000a    <Routine name="Block_1"/>\u000a    <LoopTerminator name="trials"/>\u000a    <Routine name="Instr_2"/>\u000a    <LoopInitiator loopType="TrialHandler" name="trials_2">\u000a      <Param name="conditionsFile" val="Good_Bad.csv" valType="str" updates="None"/>\u000a      <Param name="name" val="trials_2" valType="code" updates="None"/>\u000a      <Param name="random seed" val="" valType="code" updates="None"/>\u000a      <Param name="loopType" val="random" valType="str" updates="None"/>\u000a      <Param name="nReps" val="2" valType="code" updates="None"/>\u000a      <Param name="endPoints" val="[0, 1]" valType="num" updates="None"/>\u000a      <Param name="conditions" val="[{'color': u'limegreen', 'word': u'Rainbow', 'condition': u'good', 'key': u'i'}, {'color': u'limegreen', 'word': u'Cake', 'condition': u'good', 'key': u'i'}, {'color': u'limegreen', 'word': u'Sunshine', 'condition': u'good', 'key': u'i'}, {'color': u'limegreen', 'word': u'Laughter', 'condition': u'good', 'key': u'i'}, {'color': u'limegreen', 'word': u'Peace', 'condition': u'good', 'key': u'i'}, {'color': u'limegreen', 'word': u'Heaven', 'condition': u'good', 'key': u'i'}, {'color': u'limegreen', 'word': u'Agony', 'condition': u'bad', 'key': u'e'}, {'color': u'limegreen', 'word': u'Hell', 'condition': u'bad', 'key': u'e'}, {'color': u'limegreen', 'word': u'Ugly', 'condition': u'bad', 'key': u'e'}, {'color': u'limegreen', 'word': u'Vomit', 'condition': u'bad', 'key': u'e'}, {'color': u'limegreen', 'word': u'Poison', 'condition': u'bad', 'key': u'e'}, {'color': u'limegreen', 'word': u'Rotten', 'condition': u'bad', 'key': u'e'}]" valType="str" updates="None"/>\u000a    </LoopInitiator>\u000a    <Routine name="Block_2"/>\u000a    <LoopTerminator name="trials_2"/>\u000a    <Routine name="Instr_3"/>\u000a    <LoopInitiator loopType="TrialHandler" name="trials_3">\u000a      <Param name="conditionsFile" val="All.csv" valType="str" updates="None"/>\u000a      <Param name="name" val="trials_3" valType="code" updates="None"/>\u000a      <Param name="random seed" val="" valType="code" updates="None"/>\u000a      <Param name="loopType" val="random" valType="str" updates="None"/>\u000a      <Param name="nReps" val="1" valType="code" updates="None"/>\u000a      <Param name="endPoints" val="[0, 1]" valType="num" updates="None"/>\u000a      <Param name="conditions" val="[{'color': u'white', 'word': u'Creative', 'key': u'e', 'condition': u'creative'}, {'color': u'white', 'word': u'Novel', 'key': u'e', 'condition': u'creative'}, {'color': u'white', 'word': u'Inventive', 'key': u'e', 'condition': u'creative'}, {'color': u'white', 'word': u'Newfangled', 'key': u'e', 'condition': u'creative'}, {'color': u'white', 'word': u'Original', 'key': u'e', 'condition': u'creative'}, {'color': u'white', 'word': u'Different', 'key': u'e', 'condition': u'creative'}, {'color': u'white', 'word': u'Practical', 'key': u'i', 'condition': u'practical'}, {'color': u'white', 'word': u'Applied', 'key': u'i', 'condition': u'practical'}, {'color': u'white', 'word': u'Useful', 'key': u'i', 'condition': u'practical'}, {'color': u'white', 'word': u'Functional', 'key': u'i', 'condition': u'practical'}, {'color': u'white', 'word': u'Efficient', 'key': u'i', 'condition': u'practical'}, {'color': u'white', 'word': u'Constructive', 'key': u'i', 'condition': u'practical'}, {'color': u'limegreen', 'word': u'Rainbow', 'key': u'i', 'condition': u'good'}, {'color': u'limegreen', 'word': u'Cake', 'key': u'i', 'condition': u'good'}, {'color': u'limegreen', 'word': u'Sunshine', 'key': u'i', 'condition': u'good'}, {'color': u'limegreen', 'word': u'Laughter', 'key': u'i', 'condition': u'good'}, {'color': u'limegreen', 'word': u'Peace', 'key': u'i', 'condition': u'good'}, {'color': u'limegreen', 'word': u'Heaven', 'key': u'i', 'condition': u'good'}, {'color': u'limegreen', 'word': u'Agony', 'key': u'e', 'condition': u'bad'}, {'color': u'limegreen', 'word': u'Hell', 'key': u'e', 'condition': u'bad'}, {'color': u'limegreen', 'word': u'Ugly', 'key': u'e', 'condition': u'bad'}, {'color': u'limegreen', 'word': u'Vomit', 'key': u'e', 'condition': u'bad'}, {'color': u'limegreen', 'word': u'Poison', 'key': u'e', 'condition': u'bad'}, {'color': u'limegreen', 'word': u'Rotten', 'key': u'e', 'condition': u'bad'}]" valType="str" updates="None"/>\u000a    </LoopInitiator>\u000a    <Routine name="Block_3"/>\u000a    <LoopTerminator name="trials_3"/>\u000a    <Routine name="Instr_4"/>\u000a    <LoopInitiator loopType="TrialHandler" name="trials_4">\u000a      <Param name="conditionsFile" val="All.csv" valType="str" updates="None"/>\u000a      <Param name="name" val="trials_4" valType="code" updates="None"/>\u000a      <Param name="random seed" val="" valType="code" updates="None"/>\u000a      <Param name="loopType" val="random" valType="str" updates="None"/>\u000a      <Param name="nReps" val="2" valType="code" updates="None"/>\u000a      <Param name="endPoints" val="[0, 1]" valType="num" updates="None"/>\u000a      <Param name="conditions" val="[{'color': u'white', 'word': u'Creative', 'key': u'e', 'condition': u'creative'}, {'color': u'white', 'word': u'Novel', 'key': u'e', 'condition': u'creative'}, {'color': u'white', 'word': u'Inventive', 'key': u'e', 'condition': u'creative'}, {'color': u'white', 'word': u'Newfangled', 'key': u'e', 'condition': u'creative'}, {'color': u'white', 'word': u'Original', 'key': u'e', 'condition': u'creative'}, {'color': u'white', 'word': u'Different', 'key': u'e', 'condition': u'creative'}, {'color': u'white', 'word': u'Practical', 'key': u'i', 'condition': u'practical'}, {'color': u'white', 'word': u'Applied', 'key': u'i', 'condition': u'practical'}, {'color': u'white', 'word': u'Useful', 'key': u'i', 'condition': u'practical'}, {'color': u'white', 'word': u'Functional', 'key': u'i', 'condition': u'practical'}, {'color': u'white', 'word': u'Efficient', 'key': u'i', 'condition': u'practical'}, {'color': u'white', 'word': u'Constructive', 'key': u'i', 'condition': u'practical'}, {'color': u'limegreen', 'word': u'Rainbow', 'key': u'i', 'condition': u'good'}, {'color': u'limegreen', 'word': u'Cake', 'key': u'i', 'condition': u'good'}, {'color': u'limegreen', 'word': u'Sunshine', 'key': u'i', 'condition': u'good'}, {'color': u'limegreen', 'word': u'Laughter', 'key': u'i', 'condition': u'good'}, {'color': u'limegreen', 'word': u'Peace', 'key': u'i', 'condition': u'good'}, {'color': u'limegreen', 'word': u'Heaven', 'key': u'i', 'condition': u'good'}, {'color': u'limegreen', 'word': u'Agony', 'key': u'e', 'condition': u'bad'}, {'color': u'limegreen', 'word': u'Hell', 'key': u'e', 'condition': u'bad'}, {'color': u'limegreen', 'word': u'Ugly', 'key': u'e', 'condition': u'bad'}, {'color': u'limegreen', 'word': u'Vomit', 'key': u'e', 'condition': u'bad'}, {'color': u'limegreen', 'word': u'Poison', 'key': u'e', 'condition': u'bad'}, {'color': u'limegreen', 'word': u'Rotten', 'key': u'e', 'condition': u'bad'}]" valType="str" updates="None"/>\u000a    </LoopInitiator>\u000a    <Routine name="Block_4"/>\u000a    <LoopTerminator name="trials_4"/>\u000a    <Routine name="Instr_5"/>\u000a    <LoopInitiator loopType="TrialHandler" name="trials_5">\u000a      <Param name="conditionsFile" val="Creat_Prac_rev.csv" valType="str" updates="None"/>\u000a      <Param name="name" val="trials_5" valType="code" updates="None"/>\u000a      <Param name="random seed" val="" valType="code" updates="None"/>\u000a      <Param name="loopType" val="random" valType="str" updates="None"/>\u000a      <Param name="nReps" val="2" valType="code" updates="None"/>\u000a      <Param name="endPoints" val="[0, 1]" valType="num" updates="None"/>\u000a      <Param name="conditions" val="[{'color': u'white', 'word': u'Creative', 'condition': u'creative', 'key': u'i'}, {'color': u'white', 'word': u'Novel', 'condition': u'creative', 'key': u'i'}, {'color': u'white', 'word': u'Inventive', 'condition': u'creative', 'key': u'i'}, {'color': u'white', 'word': u'Newfangled', 'condition': u'creative', 'key': u'i'}, {'color': u'white', 'word': u'Original', 'condition': u'creative', 'key': u'i'}, {'color': u'white', 'word': u'Different', 'condition': u'creative', 'key': u'i'}, {'color': u'white', 'word': u'Practical', 'condition': u'practical', 'key': u'e'}, {'color': u'white', 'word': u'Applied', 'condition': u'practical', 'key': u'e'}, {'color': u'white', 'word': u'Useful', 'condition': u'practical', 'key': u'e'}, {'color': u'white', 'word': u'Functional', 'condition': u'practical', 'key': u'e'}, {'color': u'white', 'word': u'Efficient', 'condition': u'practical', 'key': u'e'}, {'color': u'white', 'word': u'Constructive', 'condition': u'practical', 'key': u'e'}]" valType="str" updates="None"/>\u000a    </LoopInitiator>\u000a    <Routine name="Block_5"/>\u000a    <LoopTerminator name="trials_5"/>\u000a    <Routine name="Instr_6"/>\u000a    <LoopInitiator loopType="TrialHandler" name="trials_6">\u000a      <Param name="conditionsFile" val="All_rev.csv" valType="str" updates="None"/>\u000a      <Param name="name" val="trials_6" valType="code" updates="None"/>\u000a      <Param name="random seed" val="" valType="code" updates="None"/>\u000a      <Param name="loopType" val="random" valType="str" updates="None"/>\u000a      <Param name="nReps" val="1" valType="code" updates="None"/>\u000a      <Param name="endPoints" val="[0, 1]" valType="num" updates="None"/>\u000a      <Param name="conditions" val="[{'color': u'skyblue', 'word': u'Creative', 'condition': u'creative', 'key': u'i'}, {'color': u'skyblue', 'word': u'Novel', 'condition': u'creative', 'key': u'i'}, {'color': u'skyblue', 'word': u'Inventive', 'condition': u'creative', 'key': u'i'}, {'color': u'skyblue', 'word': u'Newfangled', 'condition': u'creative', 'key': u'i'}, {'color': u'skyblue', 'word': u'Original', 'condition': u'creative', 'key': u'i'}, {'color': u'skyblue', 'word': u'Different', 'condition': u'creative', 'key': u'i'}, {'color': u'skyblue', 'word': u'Practical', 'condition': u'practical', 'key': u'e'}, {'color': u'skyblue', 'word': u'Applied', 'condition': u'practical', 'key': u'e'}, {'color': u'skyblue', 'word': u'Useful', 'condition': u'practical', 'key': u'e'}, {'color': u'skyblue', 'word': u'Functional', 'condition': u'practical', 'key': u'e'}, {'color': u'skyblue', 'word': u'Efficient', 'condition': u'practical', 'key': u'e'}, {'color': u'skyblue', 'word': u'Constructive', 'condition': u'practical', 'key': u'e'}, {'color': u'limegreen', 'word': u'Rainbow', 'condition': u'good', 'key': u'i'}, {'color': u'limegreen', 'word': u'Cake', 'condition': u'good', 'key': u'i'}, {'color': u'limegreen', 'word': u'Sunshine', 'condition': u'good', 'key': u'i'}, {'color': u'limegreen', 'word': u'Laughter', 'condition': u'good', 'key': u'i'}, {'color': u'limegreen', 'word': u'Peace', 'condition': u'good', 'key': u'i'}, {'color': u'limegreen', 'word': u'Heaven', 'condition': u'good', 'key': u'i'}, {'color': u'limegreen', 'word': u'Agony', 'condition': u'bad', 'key': u'e'}, {'color': u'limegreen', 'word': u'Hell', 'condition': u'bad', 'key': u'e'}, {'color': u'limegreen', 'word': u'Ugly', 'condition': u'bad', 'key': u'e'}, {'color': u'limegreen', 'word': u'Vomit', 'condition': u'bad', 'key': u'e'}, {'color': u'limegreen', 'word': u'Poison', 'condition': u'bad', 'key': u'e'}, {'color': u'limegreen', 'word': u'Rotten', 'condition': u'bad', 'key': u'e'}]" valType="str" updates="None"/>\u000a    </LoopInitiator>\u000a    <Routine name="Block_6"/>\u000a    <LoopTerminator name="trials_6"/>\u000a    <Routine name="Instr_7"/>\u000a    <LoopInitiator loopType="TrialHandler" name="trials_7">\u000a      <Param name="conditionsFile" val="All_rev.csv" valType="str" updates="None"/>\u000a      <Param name="name" val="trials_7" valType="code" updates="None"/>\u000a      <Param name="random seed" val="" valType="code" updates="None"/>\u000a      <Param name="loopType" val="random" valType="str" updates="None"/>\u000a      <Param name="nReps" val="2" valType="code" updates="None"/>\u000a      <Param name="endPoints" val="[0, 1]" valType="num" updates="None"/>\u000a      <Param name="conditions" val="[{'color': u'skyblue', 'word': u'Creative', 'condition': u'creative', 'key': u'i'}, {'color': u'skyblue', 'word': u'Novel', 'condition': u'creative', 'key': u'i'}, {'color': u'skyblue', 'word': u'Inventive', 'condition': u'creative', 'key': u'i'}, {'color': u'skyblue', 'word': u'Newfangled', 'condition': u'creative', 'key': u'i'}, {'color': u'skyblue', 'word': u'Original', 'condition': u'creative', 'key': u'i'}, {'color': u'skyblue', 'word': u'Different', 'condition': u'creative', 'key': u'i'}, {'color': u'skyblue', 'word': u'Practical', 'condition': u'practical', 'key': u'e'}, {'color': u'skyblue', 'word': u'Applied', 'condition': u'practical', 'key': u'e'}, {'color': u'skyblue', 'word': u'Useful', 'condition': u'practical', 'key': u'e'}, {'color': u'skyblue', 'word': u'Functional', 'condition': u'practical', 'key': u'e'}, {'color': u'skyblue', 'word': u'Efficient', 'condition': u'practical', 'key': u'e'}, {'color': u'skyblue', 'word': u'Constructive', 'condition': u'practical', 'key': u'e'}, {'color': u'limegreen', 'word': u'Rainbow', 'condition': u'good', 'key': u'i'}, {'color': u'limegreen', 'word': u'Cake', 'condition': u'good', 'key': u'i'}, {'color': u'limegreen', 'word': u'Sunshine', 'condition': u'good', 'key': u'i'}, {'color': u'limegreen', 'word': u'Laughter', 'condition': u'good', 'key': u'i'}, {'color': u'limegreen', 'word': u'Peace', 'condition': u'good', 'key': u'i'}, {'color': u'limegreen', 'word': u'Heaven', 'condition': u'good', 'key': u'i'}, {'color': u'limegreen', 'word': u'Agony', 'condition': u'bad', 'key': u'e'}, {'color': u'limegreen', 'word': u'Hell', 'condition': u'bad', 'key': u'e'}, {'color': u'limegreen', 'word': u'Ugly', 'condition': u'bad', 'key': u'e'}, {'color': u'limegreen', 'word': u'Vomit', 'condition': u'bad', 'key': u'e'}, {'color': u'limegreen', 'word': u'Poison', 'condition': u'bad', 'key': u'e'}, {'color': u'limegreen', 'word': u'Rotten', 'condition': u'bad', 'key': u'e'}]" valType="str" updates="None"/>\u000a    </LoopInitiator>\u000a    <Routine name="Block_7"/>\u000a    <LoopTerminator name="trials_7"/>\u000a    <Routine name="thanks"/>\u000a  </Flow>\u000a</PsychoPy2experiment>\u000a
p225
sS'thisTrial'
p226
(lp227
sS'_exp'
p228
I75264624
sg11
S'trials'
p229
sg6
g7
sS'thisRepN'
p230
I2
sg25
I01
sg26
g27
sS'data'
p231
g1
(cpsychopy.data
DataHandler
p232
c__builtin__
dict
p233
(dp234
g19
cnumpy.ma.core
_mareconstruct
p235
(cnumpy.ma.core
MaskedArray
p236
cnumpy
ndarray
p237
(I0
tp238
S'b'
tRp239
(I1
(I12
I2
tg34
(S'O4'
I0
I1
tRp240
(I3
S'|'
NNNI-1
I-1
I63
tbI00
S'\x00\x9b\x86\x04\x80\x9c\x86\x04\x80\x9f\x86\x04\xf0\x9e\x86\x04\xb0\x99\x86\x048\x96\x86\x04\xd0\x9d\x86\x04`\x98\x86\x04@\x9d\x86\x04\xc8\x9f\x86\x04\xb0\x9f\x86\x04\xe0\x9c\x86\x04\x80\x99\x86\x048\x9c\x86\x04h\x9f\x86\x04\x88\x9d\x86\x04\x98\x99\x86\x04x\x9b\x86\x04\x10\x9a\x86\x040\x9b\x86\x04\xf0\x9b\x86\x04\x00\x9e\x86\x04h\x96\x86\x04\x10\x9d\x86\x04'
S'\x00\x00\x00\x00\x00\x00\x00\x00\x00\x00\x00\x00\x00\x00\x00\x00\x00\x00\x00\x00\x00\x00\x00\x00'
NtbsS'ran'
p241
g235
(g236
g237
g238
S'b'
tRp242
(I1
(I12
I2
tg34
(S'f4'
I0
I1
tRp243
(I3
S'<'
NNNI-1
I-1
I0
tbI00
S'\x00\x00\x80?\x00\x00\x80?\x00\x00\x80?\x00\x00\x80?\x00\x00\x80?\x00\x00\x80?\x00\x00\x80?\x00\x00\x80?\x00\x00\x80?\x00\x00\x80?\x00\x00\x80?\x00\x00\x80?\x00\x00\x80?\x00\x00\x80?\x00\x00\x80?\x00\x00\x80?\x00\x00\x80?\x00\x00\x80?\x00\x00\x80?\x00\x00\x80?\x00\x00\x80?\x00\x00\x80?\x00\x00\x80?\x00\x00\x80?'
S'\x00\x00\x00\x00\x00\x00\x00\x00\x00\x00\x00\x00\x00\x00\x00\x00\x00\x00\x00\x00\x00\x00\x00\x00'
Ntbsg23
g235
(g236
g237
g238
S'b'
tRp244
(I1
(I12
I2
tg243
I00
S'\x00\x00\x00\x00\x00\x00\x00\x00\x00\x00\x00\x00\x00\x00\x00\x00\x00\x00\x00\x00\x00\x00\x00\x00\x00\x00\x00\x00\x00\x00\x00\x00\x00\x00\x00\x00\x00\x00\x00\x00\x00\x00\x00\x00\x00\x00\x00\x00\x00\x00\x00\x00\x00\x00\x00\x00\x00\x00\x80?\x00\x00\x80?\x00\x00\x80?\x00\x00\x80?\x00\x00\x00\x00\x00\x00\x00\x00\x00\x00\x00\x00\x00\x00\x00\x00\x00\x00\x80?\x00\x00\x80?'
S'\x00\x00\x00\x00\x00\x00\x00\x00\x00\x00\x00\x00\x00\x00\x00\x00\x00\x00\x00\x00\x00\x00\x00\x00'
Ntbsg24
g235
(g236
g237
g238
S'b'
tRp245
(I1
(I12
I2
tg243
I00
S'\x00\x00\x00\x00\x00\x00\x00\x00\x00\x00\x00\x00\x00\x00\x00\x00\x00\x00\x00\x00\x00\x00\x00\x00\x00\x00\x00\x00\x00\x00\x00\x00\x00\x00\x00\x00\x00\x00\x00\x00\x00\x00\x00\x00\x00\x00\x00\x00\x00\x00\x00\x00\x00\x00\x00\x00\xe0\x1e3?\x06\x8f\xf7>\x9fO\xf7>\x9an\xd5>\x00\x00\x00\x00\x00\x00\x00\x00\x00\x00\x00\x00\x00\x00\x00\x00\x1c-@@\xdb\xe5\xff>'
S'\x01\x01\x01\x01\x01\x01\x01\x01\x01\x01\x01\x01\x01\x01\x00\x00\x00\x00\x01\x01\x01\x01\x00\x00'
Ntbsg21
g235
(g236
g237
g238
S'b'
tRp246
(I1
(I12
I2
tg243
I00
S'P@\x1e?\xf5\xf6*?\x98\x87%@\x936\x91?\xf6ub?C:/?/\xabU?\x12>^?\xac{\xa4?\x10\x1eM?\xca\x98\xc6?\xf1\x17\xbe?\x121\x80?\x8e\xdfH?F\xd9w?\x0cMo?Pd\xc2?0\xf9j?\xef.\xcf?\xfd\xaes?\xfbD1@^\xd1\x8a?\x8c\xfa\xac?\x16\xc5\xa8?'
S'\x00\x00\x00\x00\x00\x00\x00\x00\x00\x00\x00\x00\x00\x00\x00\x00\x00\x00\x00\x00\x00\x00\x00\x00'
Ntbsg22
g235
(g236
g237
g238
S'b'
tRp247
(I1
(I12
I2
tg240
I00
S'\xcc\x18\x1f\x1e\xcc\x18\x1f\x1e\xcc\x18\x1f\x1e\xcc\x18\x1f\x1e\xcc\x18\x1f\x1e\xcc\x18\x1f\x1e\xcc\x18\x1f\x1e\xcc\x18\x1f\x1e\xcc\x18\x1f\x1e\xcc\x18\x1f\x1e\xcc\x18\x1f\x1e\xcc\x18\x1f\x1e\xcc\x18\x1f\x1e\xcc\x18\x1f\x1e\x98\x9c\x86\x04X\x9a\x86\x04\xb0\x9c\x86\x04\x08\x9f\x86\x04\xcc\x18\x1f\x1e\xcc\x18\x1f\x1e\xcc\x18\x1f\x1e\xcc\x18\x1f\x1e\x18\x9e\x86\x04\xd8\x9e\x86\x04'
S'\x00\x00\x00\x00\x00\x00\x00\x00\x00\x00\x00\x00\x00\x00\x00\x00\x00\x00\x00\x00\x00\x00\x00\x00'
Ntbsg20
g235
(g236
g237
g238
S'b'
tRp248
(I1
(I12
I2
tg243
I00
S'\x00\x00\x80?\x00\x00\x80?\x00\x00\x80?\x00\x00\x80?\x00\x00\x80?\x00\x00\x80?\x00\x00\x80?\x00\x00\x80?\x00\x00\x80?\x00\x00\x80?\x00\x00\x80?\x00\x00\x80?\x00\x00\x80?\x00\x00\x80?\x00\x00\x00\x00\x00\x00\x00\x00\x00\x00\x00\x00\x00\x00\x00\x00\x00\x00\x80?\x00\x00\x80?\x00\x00\x80?\x00\x00\x80?\x00\x00\x00\x00\x00\x00\x00\x00'
S'\x00\x00\x00\x00\x00\x00\x00\x00\x00\x00\x00\x00\x00\x00\x00\x00\x00\x00\x00\x00\x00\x00\x00\x00'
NtbsS'order'
p249
g235
(g236
g237
g238
S'b'
tRp250
(I1
(I12
I2
tg243
I00
S'\x00\x00\xe0@\x00\x00\x80A\x00\x00\xc0@\x00\x00\xa8A\x00\x00 A\x00\x00\x88A\x00\x00\x10A\x00\x00pA\x00\x00\x00A\x00\x00\x98A\x00\x00@@\x00\x00\x90A\x00\x00\x80@\x00\x00\xb0A\x00\x00\xa0@\x00\x00@A\x00\x000A\x00\x00PA\x00\x00\x80?\x00\x00\xa0A\x00\x00\x00\x00\x00\x00\xb8A\x00\x00\x00@\x00\x00`A'
S'\x00\x00\x00\x00\x00\x00\x00\x00\x00\x00\x00\x00\x00\x00\x00\x00\x00\x00\x00\x00\x00\x00\x00\x00'
NtbstRp251
(dp252
S'isNumeric'
p253
(dp254
g19
I00
sg241
I01
sg23
I01
sg24
I01
sg21
I01
sg22
I00
sg20
I01
sg249
I01
ssg229
g222
sS'dataTypes'
p255
(lp256
g241
ag249
ag19
ag20
ag21
ag22
ag23
ag24
asS'dataShape'
p257
(lp258
I12
aI2
asbsS'method'
p259
S'random'
p260
sS'sequenceIndices'
p261
cnumpy.core.multiarray
_reconstruct
p262
(g237
(I0
tS'b'
tRp263
(I1
(I12
I2
tg61
I01
S'\n\x00\x00\x00\t\x00\x00\x00\x0b\x00\x00\x00\x05\x00\x00\x00\x06\x00\x00\x00\x07\x00\x00\x00\x01\x00\x00\x00\x00\x00\x00\x00\x04\x00\x00\x00\x03\x00\x00\x00\x02\x00\x00\x00\x08\x00\x00\x00\x07\x00\x00\x00\x08\x00\x00\x00\x0b\x00\x00\x00\x03\x00\x00\x00\x00\x00\x00\x00\x02\x00\x00\x00\x05\x00\x00\x00\x04\x00\x00\x00\t\x00\x00\x00\x01\x00\x00\x00\x06\x00\x00\x00\n\x00\x00\x00'
tbsS'finished'
p264
I01
sS'nReps'
p265
I2
sS'nRemaining'
p266
I-1
sS'trialList'
p267
(lp268
g1
(cpsychopy.data
TrialType
p269
g233
(dp270
g49
g64
sg50
g115
sg52
S'e'
sg51
g90
stRp271
ag1
(g269
g233
(dp272
g49
g64
sg50
g108
sg52
S'e'
sg51
g90
stRp273
ag1
(g269
g233
(dp274
g49
g64
sg50
g136
sg52
S'e'
sg51
g90
stRp275
ag1
(g269
g233
(dp276
g49
g64
sg50
g129
sg52
S'e'
sg51
g90
stRp277
ag1
(g269
g233
(dp278
g49
g64
sg50
g122
sg52
S'e'
sg51
g90
stRp279
ag1
(g269
g233
(dp280
g49
g64
sg50
g86
sg52
S'e'
sg51
g90
stRp281
ag1
(g269
g233
(dp282
g49
g64
sg50
g94
sg52
S'i'
sg51
g68
stRp283
ag1
(g269
g233
(dp284
g49
g64
sg50
g101
sg52
S'i'
sg51
g68
stRp285
ag1
(g269
g233
(dp286
g49
g64
sg50
g143
sg52
S'i'
sg51
g68
stRp287
ag1
(g269
g233
(dp288
g49
g64
sg50
g72
sg52
S'i'
sg51
g68
stRp289
ag1
(g269
g233
(dp290
g49
g64
sg50
g63
sg52
S'i'
sg51
g68
stRp291
ag1
(g269
g233
(dp292
g49
g64
sg50
g79
sg52
S'i'
sg51
g68
stRp293
asS'seed'
p294
NsS'thisIndex'
p295
g215
sS'thisN'
p296
I24
sS'thisTrialN'
p297
I0
sS'nTotal'
p298
I24
sS'_warnUseOfNext'
p299
I01
sbasS'savePickle'
p300
I00
sb.